

Microchip Technology PIC LITE Macro Assembler V1.41 build -162212810 
                                                                                               Mon Jun 26 08:00:09 2017

Microchip Technology Omniscient Code Generator v1.41 (Free mode) build 201701250102
     1                           	processor	16F15355
     2                           	opt	pw 120
     3                           	opt	lm
     4                           	psect	idataBANK0,global,class=CODE,delta=2
     5                           	psect	cinit,global,class=CODE,merge=1,delta=2
     6                           	psect	bssBANK0,global,class=BANK0,space=1,delta=1
     7                           	psect	dataBANK0,global,class=BANK0,space=1,delta=1
     8                           	psect	clrtext,global,class=CODE,delta=2
     9                           	psect	cstackCOMMON,global,class=COMMON,space=1,delta=1
    10                           	psect	cstackBANK0,global,class=BANK0,space=1,delta=1
    11                           	psect	maintext,global,class=CODE,merge=1,split=1,delta=2
    12                           	psect	text1,local,class=CODE,merge=1,delta=2
    13                           	psect	text2,local,class=CODE,merge=1,delta=2
    14                           	psect	text3,local,class=CODE,merge=1,delta=2
    15                           	psect	text4,local,class=CODE,merge=1,delta=2
    16                           	psect	intentry,global,class=CODE,delta=2
    17                           	psect	text6,local,class=CODE,merge=1,delta=2
    18                           	psect	text7,local,class=CODE,merge=1,delta=2
    19                           	psect	text8,local,class=CODE,merge=1,delta=2
    20                           	dabs	1,0x7E,2
    21  0000                     
    22                           ; Version 1.41
    23                           ; Generated 25/01/2017 GMT
    24                           ; 
    25                           ; Copyright © 2017, Microchip Technology Inc. and its subsidiaries ("Microchip")
    26                           ; All rights reserved.
    27                           ; 
    28                           ; This software is developed by Microchip Technology Inc. and its subsidiaries ("Microch
      +                          ip").
    29                           ; 
    30                           ; Redistribution and use in source and binary forms, with or without modification, are
    31                           ; permitted provided that the following conditions are met:
    32                           ; 
    33                           ;     1. Redistributions of source code must retain the above copyright notice, this lis
      +                          t of
    34                           ;        conditions and the following disclaimer.
    35                           ; 
    36                           ;     2. Redistributions in binary form must reproduce the above copyright notice, this 
      +                          list
    37                           ;        of conditions and the following disclaimer in the documentation and/or other
    38                           ;        materials provided with the distribution.
    39                           ; 
    40                           ;     3. Microchip's name may not be used to endorse or promote products derived from th
      +                          is
    41                           ;        software without specific prior written permission.
    42                           ; 
    43                           ; THIS SOFTWARE IS PROVIDED BY MICROCHIP "AS IS" AND ANY EXPRESS OR IMPLIED WARRANTIES,
    44                           ; INCLUDING, BUT NOT LIMITED TO, THE IMPLIED WARRANTIES OF MERCHANTABILITY AND FITNESS F
      +                          OR
    45                           ; PURPOSE ARE DISCLAIMED.  IN NO EVENT SHALL MICROCHIP BE LIABLE FOR ANY DIRECT, INDIREC
      +                          T,
    46                           ; INCIDENTAL, SPECIAL, EXEMPLARY, OR CONSEQUENTIAL DAMAGES (INCLUDING BUT NOT LIMITED TO
    47                           ; PROCUREMENT OF SUBSTITUTE GOODS OR SERVICES; LOSS OF USE, DATA OR PROFITS; OR BUSINESS
    48                           ; INTERRUPTION) HOWSOEVER CAUSED AND ON ANY THEORY OF LIABILITY, WHETHER IN CONTRACT, ST
      +                          RICT
    49                           ; LIABILITY, OR TORT (INCLUDING NEGLIGENCE OR OTHERWISE) ARISING IN ANY WAY OUT OF THE U
      +                          SE OF
    50                           ; THIS SOFTWARE, EVEN IF ADVISED OF THE POSSIBILITY OF SUCH DAMAGE.
    51                           ; 
    52                           ; 
    53                           ; Code-generator required, PIC16F15355 Definitions
    54                           ; 
    55                           ; SFR Addresses
    56  0000                     	;# 
    57  0001                     	;# 
    58  0002                     	;# 
    59  0003                     	;# 
    60  0004                     	;# 
    61  0005                     	;# 
    62  0006                     	;# 
    63  0007                     	;# 
    64  0008                     	;# 
    65  0009                     	;# 
    66  000A                     	;# 
    67  000B                     	;# 
    68  000C                     	;# 
    69  000D                     	;# 
    70  000E                     	;# 
    71  0010                     	;# 
    72  0012                     	;# 
    73  0013                     	;# 
    74  0014                     	;# 
    75  0018                     	;# 
    76  0019                     	;# 
    77  001A                     	;# 
    78  009B                     	;# 
    79  009B                     	;# 
    80  009C                     	;# 
    81  009D                     	;# 
    82  009E                     	;# 
    83  009F                     	;# 
    84  0119                     	;# 
    85  0119                     	;# 
    86  0119                     	;# 
    87  011A                     	;# 
    88  011A                     	;# 
    89  011A                     	;# 
    90  011B                     	;# 
    91  011B                     	;# 
    92  011B                     	;# 
    93  011B                     	;# 
    94  011B                     	;# 
    95  011C                     	;# 
    96  011C                     	;# 
    97  011C                     	;# 
    98  011D                     	;# 
    99  011D                     	;# 
   100  011D                     	;# 
   101  011E                     	;# 
   102  011E                     	;# 
   103  011E                     	;# 
   104  011F                     	;# 
   105  011F                     	;# 
   106  011F                     	;# 
   107  011F                     	;# 
   108  011F                     	;# 
   109  018C                     	;# 
   110  018D                     	;# 
   111  018E                     	;# 
   112  018F                     	;# 
   113  0190                     	;# 
   114  0191                     	;# 
   115  0192                     	;# 
   116  0196                     	;# 
   117  0197                     	;# 
   118  0198                     	;# 
   119  0199                     	;# 
   120  019A                     	;# 
   121  019B                     	;# 
   122  019C                     	;# 
   123  020C                     	;# 
   124  020C                     	;# 
   125  020D                     	;# 
   126  020E                     	;# 
   127  020F                     	;# 
   128  020F                     	;# 
   129  0210                     	;# 
   130  0210                     	;# 
   131  0211                     	;# 
   132  0211                     	;# 
   133  028C                     	;# 
   134  028C                     	;# 
   135  028D                     	;# 
   136  028D                     	;# 
   137  028E                     	;# 
   138  028F                     	;# 
   139  0290                     	;# 
   140  0291                     	;# 
   141  030C                     	;# 
   142  030C                     	;# 
   143  030D                     	;# 
   144  030E                     	;# 
   145  030F                     	;# 
   146  0310                     	;# 
   147  0310                     	;# 
   148  0311                     	;# 
   149  0312                     	;# 
   150  0313                     	;# 
   151  0314                     	;# 
   152  0315                     	;# 
   153  0316                     	;# 
   154  0318                     	;# 
   155  0319                     	;# 
   156  031A                     	;# 
   157  031C                     	;# 
   158  031D                     	;# 
   159  031E                     	;# 
   160  038C                     	;# 
   161  038D                     	;# 
   162  038E                     	;# 
   163  058C                     	;# 
   164  058C                     	;# 
   165  058D                     	;# 
   166  058E                     	;# 
   167  058F                     	;# 
   168  058F                     	;# 
   169  0590                     	;# 
   170  0591                     	;# 
   171  0592                     	;# 
   172  0593                     	;# 
   173  059C                     	;# 
   174  059C                     	;# 
   175  059D                     	;# 
   176  059D                     	;# 
   177  059E                     	;# 
   178  059F                     	;# 
   179  060C                     	;# 
   180  060D                     	;# 
   181  060E                     	;# 
   182  060F                     	;# 
   183  0610                     	;# 
   184  0611                     	;# 
   185  0612                     	;# 
   186  0613                     	;# 
   187  0614                     	;# 
   188  070C                     	;# 
   189  070D                     	;# 
   190  070E                     	;# 
   191  070F                     	;# 
   192  0710                     	;# 
   193  0711                     	;# 
   194  0712                     	;# 
   195  0713                     	;# 
   196  0716                     	;# 
   197  0717                     	;# 
   198  0718                     	;# 
   199  0719                     	;# 
   200  071A                     	;# 
   201  071B                     	;# 
   202  071C                     	;# 
   203  071D                     	;# 
   204  0796                     	;# 
   205  0797                     	;# 
   206  0798                     	;# 
   207  0799                     	;# 
   208  079A                     	;# 
   209  079B                     	;# 
   210  080C                     	;# 
   211  080D                     	;# 
   212  080E                     	;# 
   213  080F                     	;# 
   214  0810                     	;# 
   215  0811                     	;# 
   216  0812                     	;# 
   217  0813                     	;# 
   218  0814                     	;# 
   219  081A                     	;# 
   220  081A                     	;# 
   221  081B                     	;# 
   222  081C                     	;# 
   223  081C                     	;# 
   224  081D                     	;# 
   225  081E                     	;# 
   226  081F                     	;# 
   227  088C                     	;# 
   228  088D                     	;# 
   229  088E                     	;# 
   230  088F                     	;# 
   231  0890                     	;# 
   232  0891                     	;# 
   233  0892                     	;# 
   234  0893                     	;# 
   235  0895                     	;# 
   236  0896                     	;# 
   237  090C                     	;# 
   238  090E                     	;# 
   239  090F                     	;# 
   240  091F                     	;# 
   241  098F                     	;# 
   242  098F                     	;# 
   243  0990                     	;# 
   244  0991                     	;# 
   245  0992                     	;# 
   246  0993                     	;# 
   247  0994                     	;# 
   248  0995                     	;# 
   249  0996                     	;# 
   250  0997                     	;# 
   251  0A19                     	;# 
   252  0A19                     	;# 
   253  0A1A                     	;# 
   254  0A1A                     	;# 
   255  0A1B                     	;# 
   256  0A1B                     	;# 
   257  0A1B                     	;# 
   258  0A1C                     	;# 
   259  0A1C                     	;# 
   260  0A1D                     	;# 
   261  0A1D                     	;# 
   262  0A1E                     	;# 
   263  0A1E                     	;# 
   264  0A1F                     	;# 
   265  0A1F                     	;# 
   266  0A1F                     	;# 
   267  1E0F                     	;# 
   268  1E10                     	;# 
   269  1E11                     	;# 
   270  1E12                     	;# 
   271  1E13                     	;# 
   272  1E14                     	;# 
   273  1E15                     	;# 
   274  1E16                     	;# 
   275  1E17                     	;# 
   276  1E18                     	;# 
   277  1E19                     	;# 
   278  1E1A                     	;# 
   279  1E1B                     	;# 
   280  1E1C                     	;# 
   281  1E1D                     	;# 
   282  1E1E                     	;# 
   283  1E1F                     	;# 
   284  1E20                     	;# 
   285  1E21                     	;# 
   286  1E22                     	;# 
   287  1E23                     	;# 
   288  1E24                     	;# 
   289  1E25                     	;# 
   290  1E26                     	;# 
   291  1E27                     	;# 
   292  1E28                     	;# 
   293  1E29                     	;# 
   294  1E2A                     	;# 
   295  1E2B                     	;# 
   296  1E2C                     	;# 
   297  1E2D                     	;# 
   298  1E2E                     	;# 
   299  1E2F                     	;# 
   300  1E30                     	;# 
   301  1E31                     	;# 
   302  1E32                     	;# 
   303  1E33                     	;# 
   304  1E34                     	;# 
   305  1E35                     	;# 
   306  1E36                     	;# 
   307  1E37                     	;# 
   308  1E8F                     	;# 
   309  1E90                     	;# 
   310  1E91                     	;# 
   311  1E92                     	;# 
   312  1E93                     	;# 
   313  1E9C                     	;# 
   314  1EA1                     	;# 
   315  1EA2                     	;# 
   316  1EB1                     	;# 
   317  1EBB                     	;# 
   318  1EBC                     	;# 
   319  1EBD                     	;# 
   320  1EBE                     	;# 
   321  1EC3                     	;# 
   322  1EC5                     	;# 
   323  1EC6                     	;# 
   324  1EC7                     	;# 
   325  1EC8                     	;# 
   326  1EC9                     	;# 
   327  1ECA                     	;# 
   328  1ECB                     	;# 
   329  1ECC                     	;# 
   330  1ECD                     	;# 
   331  1ECE                     	;# 
   332  1F10                     	;# 
   333  1F11                     	;# 
   334  1F12                     	;# 
   335  1F13                     	;# 
   336  1F14                     	;# 
   337  1F15                     	;# 
   338  1F16                     	;# 
   339  1F17                     	;# 
   340  1F18                     	;# 
   341  1F19                     	;# 
   342  1F1A                     	;# 
   343  1F1B                     	;# 
   344  1F1C                     	;# 
   345  1F1D                     	;# 
   346  1F1E                     	;# 
   347  1F1F                     	;# 
   348  1F20                     	;# 
   349  1F21                     	;# 
   350  1F22                     	;# 
   351  1F23                     	;# 
   352  1F24                     	;# 
   353  1F25                     	;# 
   354  1F26                     	;# 
   355  1F27                     	;# 
   356  1F38                     	;# 
   357  1F39                     	;# 
   358  1F3A                     	;# 
   359  1F3B                     	;# 
   360  1F3C                     	;# 
   361  1F3D                     	;# 
   362  1F3E                     	;# 
   363  1F3F                     	;# 
   364  1F43                     	;# 
   365  1F44                     	;# 
   366  1F45                     	;# 
   367  1F46                     	;# 
   368  1F47                     	;# 
   369  1F48                     	;# 
   370  1F49                     	;# 
   371  1F4A                     	;# 
   372  1F4E                     	;# 
   373  1F4F                     	;# 
   374  1F50                     	;# 
   375  1F51                     	;# 
   376  1F52                     	;# 
   377  1F53                     	;# 
   378  1F54                     	;# 
   379  1F55                     	;# 
   380  1F65                     	;# 
   381  1F68                     	;# 
   382  1F69                     	;# 
   383  1F6A                     	;# 
   384  1F6B                     	;# 
   385  1FE4                     	;# 
   386  1FE5                     	;# 
   387  1FE6                     	;# 
   388  1FE7                     	;# 
   389  1FE8                     	;# 
   390  1FE8                     	;# 
   391  1FE9                     	;# 
   392  1FEA                     	;# 
   393  1FEA                     	;# 
   394  1FEB                     	;# 
   395  1FED                     	;# 
   396  1FEE                     	;# 
   397  1FEF                     	;# 
   398  0000                     	;# 
   399  0001                     	;# 
   400  0002                     	;# 
   401  0003                     	;# 
   402  0004                     	;# 
   403  0005                     	;# 
   404  0006                     	;# 
   405  0007                     	;# 
   406  0008                     	;# 
   407  0009                     	;# 
   408  000A                     	;# 
   409  000B                     	;# 
   410  000C                     	;# 
   411  000D                     	;# 
   412  000E                     	;# 
   413  0010                     	;# 
   414  0012                     	;# 
   415  0013                     	;# 
   416  0014                     	;# 
   417  0018                     	;# 
   418  0019                     	;# 
   419  001A                     	;# 
   420  009B                     	;# 
   421  009B                     	;# 
   422  009C                     	;# 
   423  009D                     	;# 
   424  009E                     	;# 
   425  009F                     	;# 
   426  0119                     	;# 
   427  0119                     	;# 
   428  0119                     	;# 
   429  011A                     	;# 
   430  011A                     	;# 
   431  011A                     	;# 
   432  011B                     	;# 
   433  011B                     	;# 
   434  011B                     	;# 
   435  011B                     	;# 
   436  011B                     	;# 
   437  011C                     	;# 
   438  011C                     	;# 
   439  011C                     	;# 
   440  011D                     	;# 
   441  011D                     	;# 
   442  011D                     	;# 
   443  011E                     	;# 
   444  011E                     	;# 
   445  011E                     	;# 
   446  011F                     	;# 
   447  011F                     	;# 
   448  011F                     	;# 
   449  011F                     	;# 
   450  011F                     	;# 
   451  018C                     	;# 
   452  018D                     	;# 
   453  018E                     	;# 
   454  018F                     	;# 
   455  0190                     	;# 
   456  0191                     	;# 
   457  0192                     	;# 
   458  0196                     	;# 
   459  0197                     	;# 
   460  0198                     	;# 
   461  0199                     	;# 
   462  019A                     	;# 
   463  019B                     	;# 
   464  019C                     	;# 
   465  020C                     	;# 
   466  020C                     	;# 
   467  020D                     	;# 
   468  020E                     	;# 
   469  020F                     	;# 
   470  020F                     	;# 
   471  0210                     	;# 
   472  0210                     	;# 
   473  0211                     	;# 
   474  0211                     	;# 
   475  028C                     	;# 
   476  028C                     	;# 
   477  028D                     	;# 
   478  028D                     	;# 
   479  028E                     	;# 
   480  028F                     	;# 
   481  0290                     	;# 
   482  0291                     	;# 
   483  030C                     	;# 
   484  030C                     	;# 
   485  030D                     	;# 
   486  030E                     	;# 
   487  030F                     	;# 
   488  0310                     	;# 
   489  0310                     	;# 
   490  0311                     	;# 
   491  0312                     	;# 
   492  0313                     	;# 
   493  0314                     	;# 
   494  0315                     	;# 
   495  0316                     	;# 
   496  0318                     	;# 
   497  0319                     	;# 
   498  031A                     	;# 
   499  031C                     	;# 
   500  031D                     	;# 
   501  031E                     	;# 
   502  038C                     	;# 
   503  038D                     	;# 
   504  038E                     	;# 
   505  058C                     	;# 
   506  058C                     	;# 
   507  058D                     	;# 
   508  058E                     	;# 
   509  058F                     	;# 
   510  058F                     	;# 
   511  0590                     	;# 
   512  0591                     	;# 
   513  0592                     	;# 
   514  0593                     	;# 
   515  059C                     	;# 
   516  059C                     	;# 
   517  059D                     	;# 
   518  059D                     	;# 
   519  059E                     	;# 
   520  059F                     	;# 
   521  060C                     	;# 
   522  060D                     	;# 
   523  060E                     	;# 
   524  060F                     	;# 
   525  0610                     	;# 
   526  0611                     	;# 
   527  0612                     	;# 
   528  0613                     	;# 
   529  0614                     	;# 
   530  070C                     	;# 
   531  070D                     	;# 
   532  070E                     	;# 
   533  070F                     	;# 
   534  0710                     	;# 
   535  0711                     	;# 
   536  0712                     	;# 
   537  0713                     	;# 
   538  0716                     	;# 
   539  0717                     	;# 
   540  0718                     	;# 
   541  0719                     	;# 
   542  071A                     	;# 
   543  071B                     	;# 
   544  071C                     	;# 
   545  071D                     	;# 
   546  0796                     	;# 
   547  0797                     	;# 
   548  0798                     	;# 
   549  0799                     	;# 
   550  079A                     	;# 
   551  079B                     	;# 
   552  080C                     	;# 
   553  080D                     	;# 
   554  080E                     	;# 
   555  080F                     	;# 
   556  0810                     	;# 
   557  0811                     	;# 
   558  0812                     	;# 
   559  0813                     	;# 
   560  0814                     	;# 
   561  081A                     	;# 
   562  081A                     	;# 
   563  081B                     	;# 
   564  081C                     	;# 
   565  081C                     	;# 
   566  081D                     	;# 
   567  081E                     	;# 
   568  081F                     	;# 
   569  088C                     	;# 
   570  088D                     	;# 
   571  088E                     	;# 
   572  088F                     	;# 
   573  0890                     	;# 
   574  0891                     	;# 
   575  0892                     	;# 
   576  0893                     	;# 
   577  0895                     	;# 
   578  0896                     	;# 
   579  090C                     	;# 
   580  090E                     	;# 
   581  090F                     	;# 
   582  091F                     	;# 
   583  098F                     	;# 
   584  098F                     	;# 
   585  0990                     	;# 
   586  0991                     	;# 
   587  0992                     	;# 
   588  0993                     	;# 
   589  0994                     	;# 
   590  0995                     	;# 
   591  0996                     	;# 
   592  0997                     	;# 
   593  0A19                     	;# 
   594  0A19                     	;# 
   595  0A1A                     	;# 
   596  0A1A                     	;# 
   597  0A1B                     	;# 
   598  0A1B                     	;# 
   599  0A1B                     	;# 
   600  0A1C                     	;# 
   601  0A1C                     	;# 
   602  0A1D                     	;# 
   603  0A1D                     	;# 
   604  0A1E                     	;# 
   605  0A1E                     	;# 
   606  0A1F                     	;# 
   607  0A1F                     	;# 
   608  0A1F                     	;# 
   609  1E0F                     	;# 
   610  1E10                     	;# 
   611  1E11                     	;# 
   612  1E12                     	;# 
   613  1E13                     	;# 
   614  1E14                     	;# 
   615  1E15                     	;# 
   616  1E16                     	;# 
   617  1E17                     	;# 
   618  1E18                     	;# 
   619  1E19                     	;# 
   620  1E1A                     	;# 
   621  1E1B                     	;# 
   622  1E1C                     	;# 
   623  1E1D                     	;# 
   624  1E1E                     	;# 
   625  1E1F                     	;# 
   626  1E20                     	;# 
   627  1E21                     	;# 
   628  1E22                     	;# 
   629  1E23                     	;# 
   630  1E24                     	;# 
   631  1E25                     	;# 
   632  1E26                     	;# 
   633  1E27                     	;# 
   634  1E28                     	;# 
   635  1E29                     	;# 
   636  1E2A                     	;# 
   637  1E2B                     	;# 
   638  1E2C                     	;# 
   639  1E2D                     	;# 
   640  1E2E                     	;# 
   641  1E2F                     	;# 
   642  1E30                     	;# 
   643  1E31                     	;# 
   644  1E32                     	;# 
   645  1E33                     	;# 
   646  1E34                     	;# 
   647  1E35                     	;# 
   648  1E36                     	;# 
   649  1E37                     	;# 
   650  1E8F                     	;# 
   651  1E90                     	;# 
   652  1E91                     	;# 
   653  1E92                     	;# 
   654  1E93                     	;# 
   655  1E9C                     	;# 
   656  1EA1                     	;# 
   657  1EA2                     	;# 
   658  1EB1                     	;# 
   659  1EBB                     	;# 
   660  1EBC                     	;# 
   661  1EBD                     	;# 
   662  1EBE                     	;# 
   663  1EC3                     	;# 
   664  1EC5                     	;# 
   665  1EC6                     	;# 
   666  1EC7                     	;# 
   667  1EC8                     	;# 
   668  1EC9                     	;# 
   669  1ECA                     	;# 
   670  1ECB                     	;# 
   671  1ECC                     	;# 
   672  1ECD                     	;# 
   673  1ECE                     	;# 
   674  1F10                     	;# 
   675  1F11                     	;# 
   676  1F12                     	;# 
   677  1F13                     	;# 
   678  1F14                     	;# 
   679  1F15                     	;# 
   680  1F16                     	;# 
   681  1F17                     	;# 
   682  1F18                     	;# 
   683  1F19                     	;# 
   684  1F1A                     	;# 
   685  1F1B                     	;# 
   686  1F1C                     	;# 
   687  1F1D                     	;# 
   688  1F1E                     	;# 
   689  1F1F                     	;# 
   690  1F20                     	;# 
   691  1F21                     	;# 
   692  1F22                     	;# 
   693  1F23                     	;# 
   694  1F24                     	;# 
   695  1F25                     	;# 
   696  1F26                     	;# 
   697  1F27                     	;# 
   698  1F38                     	;# 
   699  1F39                     	;# 
   700  1F3A                     	;# 
   701  1F3B                     	;# 
   702  1F3C                     	;# 
   703  1F3D                     	;# 
   704  1F3E                     	;# 
   705  1F3F                     	;# 
   706  1F43                     	;# 
   707  1F44                     	;# 
   708  1F45                     	;# 
   709  1F46                     	;# 
   710  1F47                     	;# 
   711  1F48                     	;# 
   712  1F49                     	;# 
   713  1F4A                     	;# 
   714  1F4E                     	;# 
   715  1F4F                     	;# 
   716  1F50                     	;# 
   717  1F51                     	;# 
   718  1F52                     	;# 
   719  1F53                     	;# 
   720  1F54                     	;# 
   721  1F55                     	;# 
   722  1F65                     	;# 
   723  1F68                     	;# 
   724  1F69                     	;# 
   725  1F6A                     	;# 
   726  1F6B                     	;# 
   727  1FE4                     	;# 
   728  1FE5                     	;# 
   729  1FE6                     	;# 
   730  1FE7                     	;# 
   731  1FE8                     	;# 
   732  1FE8                     	;# 
   733  1FE9                     	;# 
   734  1FEA                     	;# 
   735  1FEA                     	;# 
   736  1FEB                     	;# 
   737  1FED                     	;# 
   738  1FEE                     	;# 
   739  1FEF                     	;# 
   740  0000                     	;# 
   741  0001                     	;# 
   742  0002                     	;# 
   743  0003                     	;# 
   744  0004                     	;# 
   745  0005                     	;# 
   746  0006                     	;# 
   747  0007                     	;# 
   748  0008                     	;# 
   749  0009                     	;# 
   750  000A                     	;# 
   751  000B                     	;# 
   752  000C                     	;# 
   753  000D                     	;# 
   754  000E                     	;# 
   755  0010                     	;# 
   756  0012                     	;# 
   757  0013                     	;# 
   758  0014                     	;# 
   759  0018                     	;# 
   760  0019                     	;# 
   761  001A                     	;# 
   762  009B                     	;# 
   763  009B                     	;# 
   764  009C                     	;# 
   765  009D                     	;# 
   766  009E                     	;# 
   767  009F                     	;# 
   768  0119                     	;# 
   769  0119                     	;# 
   770  0119                     	;# 
   771  011A                     	;# 
   772  011A                     	;# 
   773  011A                     	;# 
   774  011B                     	;# 
   775  011B                     	;# 
   776  011B                     	;# 
   777  011B                     	;# 
   778  011B                     	;# 
   779  011C                     	;# 
   780  011C                     	;# 
   781  011C                     	;# 
   782  011D                     	;# 
   783  011D                     	;# 
   784  011D                     	;# 
   785  011E                     	;# 
   786  011E                     	;# 
   787  011E                     	;# 
   788  011F                     	;# 
   789  011F                     	;# 
   790  011F                     	;# 
   791  011F                     	;# 
   792  011F                     	;# 
   793  018C                     	;# 
   794  018D                     	;# 
   795  018E                     	;# 
   796  018F                     	;# 
   797  0190                     	;# 
   798  0191                     	;# 
   799  0192                     	;# 
   800  0196                     	;# 
   801  0197                     	;# 
   802  0198                     	;# 
   803  0199                     	;# 
   804  019A                     	;# 
   805  019B                     	;# 
   806  019C                     	;# 
   807  020C                     	;# 
   808  020C                     	;# 
   809  020D                     	;# 
   810  020E                     	;# 
   811  020F                     	;# 
   812  020F                     	;# 
   813  0210                     	;# 
   814  0210                     	;# 
   815  0211                     	;# 
   816  0211                     	;# 
   817  028C                     	;# 
   818  028C                     	;# 
   819  028D                     	;# 
   820  028D                     	;# 
   821  028E                     	;# 
   822  028F                     	;# 
   823  0290                     	;# 
   824  0291                     	;# 
   825  030C                     	;# 
   826  030C                     	;# 
   827  030D                     	;# 
   828  030E                     	;# 
   829  030F                     	;# 
   830  0310                     	;# 
   831  0310                     	;# 
   832  0311                     	;# 
   833  0312                     	;# 
   834  0313                     	;# 
   835  0314                     	;# 
   836  0315                     	;# 
   837  0316                     	;# 
   838  0318                     	;# 
   839  0319                     	;# 
   840  031A                     	;# 
   841  031C                     	;# 
   842  031D                     	;# 
   843  031E                     	;# 
   844  038C                     	;# 
   845  038D                     	;# 
   846  038E                     	;# 
   847  058C                     	;# 
   848  058C                     	;# 
   849  058D                     	;# 
   850  058E                     	;# 
   851  058F                     	;# 
   852  058F                     	;# 
   853  0590                     	;# 
   854  0591                     	;# 
   855  0592                     	;# 
   856  0593                     	;# 
   857  059C                     	;# 
   858  059C                     	;# 
   859  059D                     	;# 
   860  059D                     	;# 
   861  059E                     	;# 
   862  059F                     	;# 
   863  060C                     	;# 
   864  060D                     	;# 
   865  060E                     	;# 
   866  060F                     	;# 
   867  0610                     	;# 
   868  0611                     	;# 
   869  0612                     	;# 
   870  0613                     	;# 
   871  0614                     	;# 
   872  070C                     	;# 
   873  070D                     	;# 
   874  070E                     	;# 
   875  070F                     	;# 
   876  0710                     	;# 
   877  0711                     	;# 
   878  0712                     	;# 
   879  0713                     	;# 
   880  0716                     	;# 
   881  0717                     	;# 
   882  0718                     	;# 
   883  0719                     	;# 
   884  071A                     	;# 
   885  071B                     	;# 
   886  071C                     	;# 
   887  071D                     	;# 
   888  0796                     	;# 
   889  0797                     	;# 
   890  0798                     	;# 
   891  0799                     	;# 
   892  079A                     	;# 
   893  079B                     	;# 
   894  080C                     	;# 
   895  080D                     	;# 
   896  080E                     	;# 
   897  080F                     	;# 
   898  0810                     	;# 
   899  0811                     	;# 
   900  0812                     	;# 
   901  0813                     	;# 
   902  0814                     	;# 
   903  081A                     	;# 
   904  081A                     	;# 
   905  081B                     	;# 
   906  081C                     	;# 
   907  081C                     	;# 
   908  081D                     	;# 
   909  081E                     	;# 
   910  081F                     	;# 
   911  088C                     	;# 
   912  088D                     	;# 
   913  088E                     	;# 
   914  088F                     	;# 
   915  0890                     	;# 
   916  0891                     	;# 
   917  0892                     	;# 
   918  0893                     	;# 
   919  0895                     	;# 
   920  0896                     	;# 
   921  090C                     	;# 
   922  090E                     	;# 
   923  090F                     	;# 
   924  091F                     	;# 
   925  098F                     	;# 
   926  098F                     	;# 
   927  0990                     	;# 
   928  0991                     	;# 
   929  0992                     	;# 
   930  0993                     	;# 
   931  0994                     	;# 
   932  0995                     	;# 
   933  0996                     	;# 
   934  0997                     	;# 
   935  0A19                     	;# 
   936  0A19                     	;# 
   937  0A1A                     	;# 
   938  0A1A                     	;# 
   939  0A1B                     	;# 
   940  0A1B                     	;# 
   941  0A1B                     	;# 
   942  0A1C                     	;# 
   943  0A1C                     	;# 
   944  0A1D                     	;# 
   945  0A1D                     	;# 
   946  0A1E                     	;# 
   947  0A1E                     	;# 
   948  0A1F                     	;# 
   949  0A1F                     	;# 
   950  0A1F                     	;# 
   951  1E0F                     	;# 
   952  1E10                     	;# 
   953  1E11                     	;# 
   954  1E12                     	;# 
   955  1E13                     	;# 
   956  1E14                     	;# 
   957  1E15                     	;# 
   958  1E16                     	;# 
   959  1E17                     	;# 
   960  1E18                     	;# 
   961  1E19                     	;# 
   962  1E1A                     	;# 
   963  1E1B                     	;# 
   964  1E1C                     	;# 
   965  1E1D                     	;# 
   966  1E1E                     	;# 
   967  1E1F                     	;# 
   968  1E20                     	;# 
   969  1E21                     	;# 
   970  1E22                     	;# 
   971  1E23                     	;# 
   972  1E24                     	;# 
   973  1E25                     	;# 
   974  1E26                     	;# 
   975  1E27                     	;# 
   976  1E28                     	;# 
   977  1E29                     	;# 
   978  1E2A                     	;# 
   979  1E2B                     	;# 
   980  1E2C                     	;# 
   981  1E2D                     	;# 
   982  1E2E                     	;# 
   983  1E2F                     	;# 
   984  1E30                     	;# 
   985  1E31                     	;# 
   986  1E32                     	;# 
   987  1E33                     	;# 
   988  1E34                     	;# 
   989  1E35                     	;# 
   990  1E36                     	;# 
   991  1E37                     	;# 
   992  1E8F                     	;# 
   993  1E90                     	;# 
   994  1E91                     	;# 
   995  1E92                     	;# 
   996  1E93                     	;# 
   997  1E9C                     	;# 
   998  1EA1                     	;# 
   999  1EA2                     	;# 
  1000  1EB1                     	;# 
  1001  1EBB                     	;# 
  1002  1EBC                     	;# 
  1003  1EBD                     	;# 
  1004  1EBE                     	;# 
  1005  1EC3                     	;# 
  1006  1EC5                     	;# 
  1007  1EC6                     	;# 
  1008  1EC7                     	;# 
  1009  1EC8                     	;# 
  1010  1EC9                     	;# 
  1011  1ECA                     	;# 
  1012  1ECB                     	;# 
  1013  1ECC                     	;# 
  1014  1ECD                     	;# 
  1015  1ECE                     	;# 
  1016  1F10                     	;# 
  1017  1F11                     	;# 
  1018  1F12                     	;# 
  1019  1F13                     	;# 
  1020  1F14                     	;# 
  1021  1F15                     	;# 
  1022  1F16                     	;# 
  1023  1F17                     	;# 
  1024  1F18                     	;# 
  1025  1F19                     	;# 
  1026  1F1A                     	;# 
  1027  1F1B                     	;# 
  1028  1F1C                     	;# 
  1029  1F1D                     	;# 
  1030  1F1E                     	;# 
  1031  1F1F                     	;# 
  1032  1F20                     	;# 
  1033  1F21                     	;# 
  1034  1F22                     	;# 
  1035  1F23                     	;# 
  1036  1F24                     	;# 
  1037  1F25                     	;# 
  1038  1F26                     	;# 
  1039  1F27                     	;# 
  1040  1F38                     	;# 
  1041  1F39                     	;# 
  1042  1F3A                     	;# 
  1043  1F3B                     	;# 
  1044  1F3C                     	;# 
  1045  1F3D                     	;# 
  1046  1F3E                     	;# 
  1047  1F3F                     	;# 
  1048  1F43                     	;# 
  1049  1F44                     	;# 
  1050  1F45                     	;# 
  1051  1F46                     	;# 
  1052  1F47                     	;# 
  1053  1F48                     	;# 
  1054  1F49                     	;# 
  1055  1F4A                     	;# 
  1056  1F4E                     	;# 
  1057  1F4F                     	;# 
  1058  1F50                     	;# 
  1059  1F51                     	;# 
  1060  1F52                     	;# 
  1061  1F53                     	;# 
  1062  1F54                     	;# 
  1063  1F55                     	;# 
  1064  1F65                     	;# 
  1065  1F68                     	;# 
  1066  1F69                     	;# 
  1067  1F6A                     	;# 
  1068  1F6B                     	;# 
  1069  1FE4                     	;# 
  1070  1FE5                     	;# 
  1071  1FE6                     	;# 
  1072  1FE7                     	;# 
  1073  1FE8                     	;# 
  1074  1FE8                     	;# 
  1075  1FE9                     	;# 
  1076  1FEA                     	;# 
  1077  1FEA                     	;# 
  1078  1FEB                     	;# 
  1079  1FED                     	;# 
  1080  1FEE                     	;# 
  1081  1FEF                     	;# 
  1082  0000                     	;# 
  1083  0001                     	;# 
  1084  0002                     	;# 
  1085  0003                     	;# 
  1086  0004                     	;# 
  1087  0005                     	;# 
  1088  0006                     	;# 
  1089  0007                     	;# 
  1090  0008                     	;# 
  1091  0009                     	;# 
  1092  000A                     	;# 
  1093  000B                     	;# 
  1094  000C                     	;# 
  1095  000D                     	;# 
  1096  000E                     	;# 
  1097  0010                     	;# 
  1098  0012                     	;# 
  1099  0013                     	;# 
  1100  0014                     	;# 
  1101  0018                     	;# 
  1102  0019                     	;# 
  1103  001A                     	;# 
  1104  009B                     	;# 
  1105  009B                     	;# 
  1106  009C                     	;# 
  1107  009D                     	;# 
  1108  009E                     	;# 
  1109  009F                     	;# 
  1110  0119                     	;# 
  1111  0119                     	;# 
  1112  0119                     	;# 
  1113  011A                     	;# 
  1114  011A                     	;# 
  1115  011A                     	;# 
  1116  011B                     	;# 
  1117  011B                     	;# 
  1118  011B                     	;# 
  1119  011B                     	;# 
  1120  011B                     	;# 
  1121  011C                     	;# 
  1122  011C                     	;# 
  1123  011C                     	;# 
  1124  011D                     	;# 
  1125  011D                     	;# 
  1126  011D                     	;# 
  1127  011E                     	;# 
  1128  011E                     	;# 
  1129  011E                     	;# 
  1130  011F                     	;# 
  1131  011F                     	;# 
  1132  011F                     	;# 
  1133  011F                     	;# 
  1134  011F                     	;# 
  1135  018C                     	;# 
  1136  018D                     	;# 
  1137  018E                     	;# 
  1138  018F                     	;# 
  1139  0190                     	;# 
  1140  0191                     	;# 
  1141  0192                     	;# 
  1142  0196                     	;# 
  1143  0197                     	;# 
  1144  0198                     	;# 
  1145  0199                     	;# 
  1146  019A                     	;# 
  1147  019B                     	;# 
  1148  019C                     	;# 
  1149  020C                     	;# 
  1150  020C                     	;# 
  1151  020D                     	;# 
  1152  020E                     	;# 
  1153  020F                     	;# 
  1154  020F                     	;# 
  1155  0210                     	;# 
  1156  0210                     	;# 
  1157  0211                     	;# 
  1158  0211                     	;# 
  1159  028C                     	;# 
  1160  028C                     	;# 
  1161  028D                     	;# 
  1162  028D                     	;# 
  1163  028E                     	;# 
  1164  028F                     	;# 
  1165  0290                     	;# 
  1166  0291                     	;# 
  1167  030C                     	;# 
  1168  030C                     	;# 
  1169  030D                     	;# 
  1170  030E                     	;# 
  1171  030F                     	;# 
  1172  0310                     	;# 
  1173  0310                     	;# 
  1174  0311                     	;# 
  1175  0312                     	;# 
  1176  0313                     	;# 
  1177  0314                     	;# 
  1178  0315                     	;# 
  1179  0316                     	;# 
  1180  0318                     	;# 
  1181  0319                     	;# 
  1182  031A                     	;# 
  1183  031C                     	;# 
  1184  031D                     	;# 
  1185  031E                     	;# 
  1186  038C                     	;# 
  1187  038D                     	;# 
  1188  038E                     	;# 
  1189  058C                     	;# 
  1190  058C                     	;# 
  1191  058D                     	;# 
  1192  058E                     	;# 
  1193  058F                     	;# 
  1194  058F                     	;# 
  1195  0590                     	;# 
  1196  0591                     	;# 
  1197  0592                     	;# 
  1198  0593                     	;# 
  1199  059C                     	;# 
  1200  059C                     	;# 
  1201  059D                     	;# 
  1202  059D                     	;# 
  1203  059E                     	;# 
  1204  059F                     	;# 
  1205  060C                     	;# 
  1206  060D                     	;# 
  1207  060E                     	;# 
  1208  060F                     	;# 
  1209  0610                     	;# 
  1210  0611                     	;# 
  1211  0612                     	;# 
  1212  0613                     	;# 
  1213  0614                     	;# 
  1214  070C                     	;# 
  1215  070D                     	;# 
  1216  070E                     	;# 
  1217  070F                     	;# 
  1218  0710                     	;# 
  1219  0711                     	;# 
  1220  0712                     	;# 
  1221  0713                     	;# 
  1222  0716                     	;# 
  1223  0717                     	;# 
  1224  0718                     	;# 
  1225  0719                     	;# 
  1226  071A                     	;# 
  1227  071B                     	;# 
  1228  071C                     	;# 
  1229  071D                     	;# 
  1230  0796                     	;# 
  1231  0797                     	;# 
  1232  0798                     	;# 
  1233  0799                     	;# 
  1234  079A                     	;# 
  1235  079B                     	;# 
  1236  080C                     	;# 
  1237  080D                     	;# 
  1238  080E                     	;# 
  1239  080F                     	;# 
  1240  0810                     	;# 
  1241  0811                     	;# 
  1242  0812                     	;# 
  1243  0813                     	;# 
  1244  0814                     	;# 
  1245  081A                     	;# 
  1246  081A                     	;# 
  1247  081B                     	;# 
  1248  081C                     	;# 
  1249  081C                     	;# 
  1250  081D                     	;# 
  1251  081E                     	;# 
  1252  081F                     	;# 
  1253  088C                     	;# 
  1254  088D                     	;# 
  1255  088E                     	;# 
  1256  088F                     	;# 
  1257  0890                     	;# 
  1258  0891                     	;# 
  1259  0892                     	;# 
  1260  0893                     	;# 
  1261  0895                     	;# 
  1262  0896                     	;# 
  1263  090C                     	;# 
  1264  090E                     	;# 
  1265  090F                     	;# 
  1266  091F                     	;# 
  1267  098F                     	;# 
  1268  098F                     	;# 
  1269  0990                     	;# 
  1270  0991                     	;# 
  1271  0992                     	;# 
  1272  0993                     	;# 
  1273  0994                     	;# 
  1274  0995                     	;# 
  1275  0996                     	;# 
  1276  0997                     	;# 
  1277  0A19                     	;# 
  1278  0A19                     	;# 
  1279  0A1A                     	;# 
  1280  0A1A                     	;# 
  1281  0A1B                     	;# 
  1282  0A1B                     	;# 
  1283  0A1B                     	;# 
  1284  0A1C                     	;# 
  1285  0A1C                     	;# 
  1286  0A1D                     	;# 
  1287  0A1D                     	;# 
  1288  0A1E                     	;# 
  1289  0A1E                     	;# 
  1290  0A1F                     	;# 
  1291  0A1F                     	;# 
  1292  0A1F                     	;# 
  1293  1E0F                     	;# 
  1294  1E10                     	;# 
  1295  1E11                     	;# 
  1296  1E12                     	;# 
  1297  1E13                     	;# 
  1298  1E14                     	;# 
  1299  1E15                     	;# 
  1300  1E16                     	;# 
  1301  1E17                     	;# 
  1302  1E18                     	;# 
  1303  1E19                     	;# 
  1304  1E1A                     	;# 
  1305  1E1B                     	;# 
  1306  1E1C                     	;# 
  1307  1E1D                     	;# 
  1308  1E1E                     	;# 
  1309  1E1F                     	;# 
  1310  1E20                     	;# 
  1311  1E21                     	;# 
  1312  1E22                     	;# 
  1313  1E23                     	;# 
  1314  1E24                     	;# 
  1315  1E25                     	;# 
  1316  1E26                     	;# 
  1317  1E27                     	;# 
  1318  1E28                     	;# 
  1319  1E29                     	;# 
  1320  1E2A                     	;# 
  1321  1E2B                     	;# 
  1322  1E2C                     	;# 
  1323  1E2D                     	;# 
  1324  1E2E                     	;# 
  1325  1E2F                     	;# 
  1326  1E30                     	;# 
  1327  1E31                     	;# 
  1328  1E32                     	;# 
  1329  1E33                     	;# 
  1330  1E34                     	;# 
  1331  1E35                     	;# 
  1332  1E36                     	;# 
  1333  1E37                     	;# 
  1334  1E8F                     	;# 
  1335  1E90                     	;# 
  1336  1E91                     	;# 
  1337  1E92                     	;# 
  1338  1E93                     	;# 
  1339  1E9C                     	;# 
  1340  1EA1                     	;# 
  1341  1EA2                     	;# 
  1342  1EB1                     	;# 
  1343  1EBB                     	;# 
  1344  1EBC                     	;# 
  1345  1EBD                     	;# 
  1346  1EBE                     	;# 
  1347  1EC3                     	;# 
  1348  1EC5                     	;# 
  1349  1EC6                     	;# 
  1350  1EC7                     	;# 
  1351  1EC8                     	;# 
  1352  1EC9                     	;# 
  1353  1ECA                     	;# 
  1354  1ECB                     	;# 
  1355  1ECC                     	;# 
  1356  1ECD                     	;# 
  1357  1ECE                     	;# 
  1358  1F10                     	;# 
  1359  1F11                     	;# 
  1360  1F12                     	;# 
  1361  1F13                     	;# 
  1362  1F14                     	;# 
  1363  1F15                     	;# 
  1364  1F16                     	;# 
  1365  1F17                     	;# 
  1366  1F18                     	;# 
  1367  1F19                     	;# 
  1368  1F1A                     	;# 
  1369  1F1B                     	;# 
  1370  1F1C                     	;# 
  1371  1F1D                     	;# 
  1372  1F1E                     	;# 
  1373  1F1F                     	;# 
  1374  1F20                     	;# 
  1375  1F21                     	;# 
  1376  1F22                     	;# 
  1377  1F23                     	;# 
  1378  1F24                     	;# 
  1379  1F25                     	;# 
  1380  1F26                     	;# 
  1381  1F27                     	;# 
  1382  1F38                     	;# 
  1383  1F39                     	;# 
  1384  1F3A                     	;# 
  1385  1F3B                     	;# 
  1386  1F3C                     	;# 
  1387  1F3D                     	;# 
  1388  1F3E                     	;# 
  1389  1F3F                     	;# 
  1390  1F43                     	;# 
  1391  1F44                     	;# 
  1392  1F45                     	;# 
  1393  1F46                     	;# 
  1394  1F47                     	;# 
  1395  1F48                     	;# 
  1396  1F49                     	;# 
  1397  1F4A                     	;# 
  1398  1F4E                     	;# 
  1399  1F4F                     	;# 
  1400  1F50                     	;# 
  1401  1F51                     	;# 
  1402  1F52                     	;# 
  1403  1F53                     	;# 
  1404  1F54                     	;# 
  1405  1F55                     	;# 
  1406  1F65                     	;# 
  1407  1F68                     	;# 
  1408  1F69                     	;# 
  1409  1F6A                     	;# 
  1410  1F6B                     	;# 
  1411  1FE4                     	;# 
  1412  1FE5                     	;# 
  1413  1FE6                     	;# 
  1414  1FE7                     	;# 
  1415  1FE8                     	;# 
  1416  1FE8                     	;# 
  1417  1FE9                     	;# 
  1418  1FEA                     	;# 
  1419  1FEA                     	;# 
  1420  1FEB                     	;# 
  1421  1FED                     	;# 
  1422  1FEE                     	;# 
  1423  1FEF                     	;# 
  1424  0000                     	;# 
  1425  0001                     	;# 
  1426  0002                     	;# 
  1427  0003                     	;# 
  1428  0004                     	;# 
  1429  0005                     	;# 
  1430  0006                     	;# 
  1431  0007                     	;# 
  1432  0008                     	;# 
  1433  0009                     	;# 
  1434  000A                     	;# 
  1435  000B                     	;# 
  1436  000C                     	;# 
  1437  000D                     	;# 
  1438  000E                     	;# 
  1439  0010                     	;# 
  1440  0012                     	;# 
  1441  0013                     	;# 
  1442  0014                     	;# 
  1443  0018                     	;# 
  1444  0019                     	;# 
  1445  001A                     	;# 
  1446  009B                     	;# 
  1447  009B                     	;# 
  1448  009C                     	;# 
  1449  009D                     	;# 
  1450  009E                     	;# 
  1451  009F                     	;# 
  1452  0119                     	;# 
  1453  0119                     	;# 
  1454  0119                     	;# 
  1455  011A                     	;# 
  1456  011A                     	;# 
  1457  011A                     	;# 
  1458  011B                     	;# 
  1459  011B                     	;# 
  1460  011B                     	;# 
  1461  011B                     	;# 
  1462  011B                     	;# 
  1463  011C                     	;# 
  1464  011C                     	;# 
  1465  011C                     	;# 
  1466  011D                     	;# 
  1467  011D                     	;# 
  1468  011D                     	;# 
  1469  011E                     	;# 
  1470  011E                     	;# 
  1471  011E                     	;# 
  1472  011F                     	;# 
  1473  011F                     	;# 
  1474  011F                     	;# 
  1475  011F                     	;# 
  1476  011F                     	;# 
  1477  018C                     	;# 
  1478  018D                     	;# 
  1479  018E                     	;# 
  1480  018F                     	;# 
  1481  0190                     	;# 
  1482  0191                     	;# 
  1483  0192                     	;# 
  1484  0196                     	;# 
  1485  0197                     	;# 
  1486  0198                     	;# 
  1487  0199                     	;# 
  1488  019A                     	;# 
  1489  019B                     	;# 
  1490  019C                     	;# 
  1491  020C                     	;# 
  1492  020C                     	;# 
  1493  020D                     	;# 
  1494  020E                     	;# 
  1495  020F                     	;# 
  1496  020F                     	;# 
  1497  0210                     	;# 
  1498  0210                     	;# 
  1499  0211                     	;# 
  1500  0211                     	;# 
  1501  028C                     	;# 
  1502  028C                     	;# 
  1503  028D                     	;# 
  1504  028D                     	;# 
  1505  028E                     	;# 
  1506  028F                     	;# 
  1507  0290                     	;# 
  1508  0291                     	;# 
  1509  030C                     	;# 
  1510  030C                     	;# 
  1511  030D                     	;# 
  1512  030E                     	;# 
  1513  030F                     	;# 
  1514  0310                     	;# 
  1515  0310                     	;# 
  1516  0311                     	;# 
  1517  0312                     	;# 
  1518  0313                     	;# 
  1519  0314                     	;# 
  1520  0315                     	;# 
  1521  0316                     	;# 
  1522  0318                     	;# 
  1523  0319                     	;# 
  1524  031A                     	;# 
  1525  031C                     	;# 
  1526  031D                     	;# 
  1527  031E                     	;# 
  1528  038C                     	;# 
  1529  038D                     	;# 
  1530  038E                     	;# 
  1531  058C                     	;# 
  1532  058C                     	;# 
  1533  058D                     	;# 
  1534  058E                     	;# 
  1535  058F                     	;# 
  1536  058F                     	;# 
  1537  0590                     	;# 
  1538  0591                     	;# 
  1539  0592                     	;# 
  1540  0593                     	;# 
  1541  059C                     	;# 
  1542  059C                     	;# 
  1543  059D                     	;# 
  1544  059D                     	;# 
  1545  059E                     	;# 
  1546  059F                     	;# 
  1547  060C                     	;# 
  1548  060D                     	;# 
  1549  060E                     	;# 
  1550  060F                     	;# 
  1551  0610                     	;# 
  1552  0611                     	;# 
  1553  0612                     	;# 
  1554  0613                     	;# 
  1555  0614                     	;# 
  1556  070C                     	;# 
  1557  070D                     	;# 
  1558  070E                     	;# 
  1559  070F                     	;# 
  1560  0710                     	;# 
  1561  0711                     	;# 
  1562  0712                     	;# 
  1563  0713                     	;# 
  1564  0716                     	;# 
  1565  0717                     	;# 
  1566  0718                     	;# 
  1567  0719                     	;# 
  1568  071A                     	;# 
  1569  071B                     	;# 
  1570  071C                     	;# 
  1571  071D                     	;# 
  1572  0796                     	;# 
  1573  0797                     	;# 
  1574  0798                     	;# 
  1575  0799                     	;# 
  1576  079A                     	;# 
  1577  079B                     	;# 
  1578  080C                     	;# 
  1579  080D                     	;# 
  1580  080E                     	;# 
  1581  080F                     	;# 
  1582  0810                     	;# 
  1583  0811                     	;# 
  1584  0812                     	;# 
  1585  0813                     	;# 
  1586  0814                     	;# 
  1587  081A                     	;# 
  1588  081A                     	;# 
  1589  081B                     	;# 
  1590  081C                     	;# 
  1591  081C                     	;# 
  1592  081D                     	;# 
  1593  081E                     	;# 
  1594  081F                     	;# 
  1595  088C                     	;# 
  1596  088D                     	;# 
  1597  088E                     	;# 
  1598  088F                     	;# 
  1599  0890                     	;# 
  1600  0891                     	;# 
  1601  0892                     	;# 
  1602  0893                     	;# 
  1603  0895                     	;# 
  1604  0896                     	;# 
  1605  090C                     	;# 
  1606  090E                     	;# 
  1607  090F                     	;# 
  1608  091F                     	;# 
  1609  098F                     	;# 
  1610  098F                     	;# 
  1611  0990                     	;# 
  1612  0991                     	;# 
  1613  0992                     	;# 
  1614  0993                     	;# 
  1615  0994                     	;# 
  1616  0995                     	;# 
  1617  0996                     	;# 
  1618  0997                     	;# 
  1619  0A19                     	;# 
  1620  0A19                     	;# 
  1621  0A1A                     	;# 
  1622  0A1A                     	;# 
  1623  0A1B                     	;# 
  1624  0A1B                     	;# 
  1625  0A1B                     	;# 
  1626  0A1C                     	;# 
  1627  0A1C                     	;# 
  1628  0A1D                     	;# 
  1629  0A1D                     	;# 
  1630  0A1E                     	;# 
  1631  0A1E                     	;# 
  1632  0A1F                     	;# 
  1633  0A1F                     	;# 
  1634  0A1F                     	;# 
  1635  1E0F                     	;# 
  1636  1E10                     	;# 
  1637  1E11                     	;# 
  1638  1E12                     	;# 
  1639  1E13                     	;# 
  1640  1E14                     	;# 
  1641  1E15                     	;# 
  1642  1E16                     	;# 
  1643  1E17                     	;# 
  1644  1E18                     	;# 
  1645  1E19                     	;# 
  1646  1E1A                     	;# 
  1647  1E1B                     	;# 
  1648  1E1C                     	;# 
  1649  1E1D                     	;# 
  1650  1E1E                     	;# 
  1651  1E1F                     	;# 
  1652  1E20                     	;# 
  1653  1E21                     	;# 
  1654  1E22                     	;# 
  1655  1E23                     	;# 
  1656  1E24                     	;# 
  1657  1E25                     	;# 
  1658  1E26                     	;# 
  1659  1E27                     	;# 
  1660  1E28                     	;# 
  1661  1E29                     	;# 
  1662  1E2A                     	;# 
  1663  1E2B                     	;# 
  1664  1E2C                     	;# 
  1665  1E2D                     	;# 
  1666  1E2E                     	;# 
  1667  1E2F                     	;# 
  1668  1E30                     	;# 
  1669  1E31                     	;# 
  1670  1E32                     	;# 
  1671  1E33                     	;# 
  1672  1E34                     	;# 
  1673  1E35                     	;# 
  1674  1E36                     	;# 
  1675  1E37                     	;# 
  1676  1E8F                     	;# 
  1677  1E90                     	;# 
  1678  1E91                     	;# 
  1679  1E92                     	;# 
  1680  1E93                     	;# 
  1681  1E9C                     	;# 
  1682  1EA1                     	;# 
  1683  1EA2                     	;# 
  1684  1EB1                     	;# 
  1685  1EBB                     	;# 
  1686  1EBC                     	;# 
  1687  1EBD                     	;# 
  1688  1EBE                     	;# 
  1689  1EC3                     	;# 
  1690  1EC5                     	;# 
  1691  1EC6                     	;# 
  1692  1EC7                     	;# 
  1693  1EC8                     	;# 
  1694  1EC9                     	;# 
  1695  1ECA                     	;# 
  1696  1ECB                     	;# 
  1697  1ECC                     	;# 
  1698  1ECD                     	;# 
  1699  1ECE                     	;# 
  1700  1F10                     	;# 
  1701  1F11                     	;# 
  1702  1F12                     	;# 
  1703  1F13                     	;# 
  1704  1F14                     	;# 
  1705  1F15                     	;# 
  1706  1F16                     	;# 
  1707  1F17                     	;# 
  1708  1F18                     	;# 
  1709  1F19                     	;# 
  1710  1F1A                     	;# 
  1711  1F1B                     	;# 
  1712  1F1C                     	;# 
  1713  1F1D                     	;# 
  1714  1F1E                     	;# 
  1715  1F1F                     	;# 
  1716  1F20                     	;# 
  1717  1F21                     	;# 
  1718  1F22                     	;# 
  1719  1F23                     	;# 
  1720  1F24                     	;# 
  1721  1F25                     	;# 
  1722  1F26                     	;# 
  1723  1F27                     	;# 
  1724  1F38                     	;# 
  1725  1F39                     	;# 
  1726  1F3A                     	;# 
  1727  1F3B                     	;# 
  1728  1F3C                     	;# 
  1729  1F3D                     	;# 
  1730  1F3E                     	;# 
  1731  1F3F                     	;# 
  1732  1F43                     	;# 
  1733  1F44                     	;# 
  1734  1F45                     	;# 
  1735  1F46                     	;# 
  1736  1F47                     	;# 
  1737  1F48                     	;# 
  1738  1F49                     	;# 
  1739  1F4A                     	;# 
  1740  1F4E                     	;# 
  1741  1F4F                     	;# 
  1742  1F50                     	;# 
  1743  1F51                     	;# 
  1744  1F52                     	;# 
  1745  1F53                     	;# 
  1746  1F54                     	;# 
  1747  1F55                     	;# 
  1748  1F65                     	;# 
  1749  1F68                     	;# 
  1750  1F69                     	;# 
  1751  1F6A                     	;# 
  1752  1F6B                     	;# 
  1753  1FE4                     	;# 
  1754  1FE5                     	;# 
  1755  1FE6                     	;# 
  1756  1FE7                     	;# 
  1757  1FE8                     	;# 
  1758  1FE8                     	;# 
  1759  1FE9                     	;# 
  1760  1FEA                     	;# 
  1761  1FEA                     	;# 
  1762  1FEB                     	;# 
  1763  1FED                     	;# 
  1764  1FEE                     	;# 
  1765  1FEF                     	;# 
  1766                           
  1767                           	psect	idataBANK0
  1768  016B                     __pidataBANK0:	
  1769                           
  1770                           ;initializer for _DEV_ID
  1771  016B  3460               	retlw	96
  1772  016C  34FC               	retlw	252
  1773  016D  3444               	retlw	68
  1774                           
  1775                           ;initializer for _I2C1_slaveWriteData
  1776  016E  3455               	retlw	85
  1777  0014                     _TRISC	set	20
  1778  0013                     _TRISB	set	19
  1779  0012                     _TRISA	set	18
  1780  001A                     _LATC	set	26
  1781  0019                     _LATB	set	25
  1782  0018                     _LATA	set	24
  1783  000B                     _INTCONbits	set	11
  1784  001A                     _LATCbits	set	26
  1785  005F                     _GIE	set	95
  1786  0190                     _SSP1CON1bits	set	400
  1787  0191                     _SSP1CON2bits	set	401
  1788  018F                     _SSP1STATbits	set	399
  1789  018C                     _SSP1BUF	set	396
  1790  018D                     _SSP1ADD	set	397
  1791  018E                     _SSP1MSK	set	398
  1792  0192                     _SSP1CON3	set	402
  1793  0191                     _SSP1CON2	set	401
  1794  0190                     _SSP1CON1	set	400
  1795  018F                     _SSP1STAT	set	399
  1796  0719                     _PIE3bits	set	1817
  1797  070F                     _PIR3bits	set	1807
  1798  0892                     _OSCTUNE	set	2194
  1799  0890                     _OSCSTAT	set	2192
  1800  0893                     _OSCFRQ	set	2195
  1801  0891                     _OSCEN	set	2193
  1802  088F                     _OSCCON3	set	2191
  1803  088D                     _OSCCON1	set	2189
  1804  1EC6                     _SSP1DATPPSbits	set	7878
  1805  1EC5                     _SSP1CLKPPSbits	set	7877
  1806  1E8F                     _PPSLOCKbits	set	7823
  1807  1E8F                     _PPSLOCK	set	7823
  1808  1F24                     _RC4PPS	set	7972
  1809  1F23                     _RC3PPS	set	7971
  1810  1F50                     _ODCONC	set	8016
  1811  1F45                     _ODCONB	set	8005
  1812  1F3A                     _ODCONA	set	7994
  1813  1F4F                     _WPUC	set	8015
  1814  1F39                     _WPUA	set	7993
  1815  1F44                     _WPUB	set	8004
  1816  1F65                     _WPUE	set	8037
  1817  1F38                     _ANSELA	set	7992
  1818  1F43                     _ANSELB	set	8003
  1819  1F4E                     _ANSELC	set	8014
  1820                           
  1821                           ; #config settings
  1822  0000                     
  1823                           	psect	cinit
  1824  0018                     start_initialization:	
  1825  0018                     __initialization:	
  1826                           
  1827                           ; Initialize objects allocated to BANK0
  1828  0018  3181  216B  3180   	fcall	__pidataBANK0	;fetch initializer
  1829  001B  00B5               	movwf	__pdataBANK0& (0+127)
  1830  001C  3181  216C  3180   	fcall	__pidataBANK0+1	;fetch initializer
  1831  001F  00B6               	movwf	(__pdataBANK0+1)& (0+127)
  1832  0020  3181  216D  3180   	fcall	__pidataBANK0+2	;fetch initializer
  1833  0023  00B7               	movwf	(__pdataBANK0+2)& (0+127)
  1834  0024  3181  216E  3180   	fcall	__pidataBANK0+3	;fetch initializer
  1835  0027  00B8               	movwf	(__pdataBANK0+3)& (0+127)
  1836                           
  1837                           ; Clear objects allocated to BANK0
  1838  0028  3020               	movlw	low __pbssBANK0
  1839  0029  0084               	movwf	4
  1840  002A  3000               	movlw	high __pbssBANK0
  1841  002B  0085               	movwf	5
  1842  002C  3015               	movlw	21
  1843  002D  3181  2165         	fcall	clear_ram0
  1844  002F                     end_of_initialization:	
  1845                           ;End of C runtime variable initialization code
  1846                           
  1847  002F                     __end_of__initialization:	
  1848  002F  107E               	bcf	int$flags,0	;clear compiler interrupt flag (level 1)
  1849  0030  0140               	movlb	0
  1850  0031  3181  295D         	ljmp	_main	;jump to C main() function
  1851                           
  1852                           	psect	bssBANK0
  1853  0020                     __pbssBANK0:	
  1854  0020                     _wMTQv:	
  1855  0020                     	ds	6
  1856  0026                     _SerialLast:	
  1857  0026                     	ds	4
  1858  002A                     _wVAR:	
  1859  002A                     	ds	4
  1860  002E                     _rVAR:	
  1861  002E                     	ds	4
  1862  0032                     _wVAR_u:	
  1863  0032                     	ds	1
  1864  0033                     _rVAR_u:	
  1865  0033                     	ds	1
  1866  0034                     _LastI2C1_CMD:	
  1867  0034                     	ds	1
  1868                           
  1869                           	psect	dataBANK0
  1870  0035                     __pdataBANK0:	
  1871  0035                     _DEV_ID:	
  1872  0035                     	ds	3
  1873  0038                     _I2C1_slaveWriteData:	
  1874  0038                     	ds	1
  1875                           
  1876                           	psect	clrtext
  1877  0165                     clear_ram0:	
  1878                           ;	Called with FSR0 containing the base address, and
  1879                           ;	WREG with the size to clear
  1880                           
  1881  0165  0064               	clrwdt	;clear the watchdog before getting into this loop
  1882  0166                     clrloop0:	
  1883  0166  0180               	clrf	0	;clear RAM location pointed to by FSR
  1884  0167  3101               	addfsr 0,1
  1885  0168  0B89               	decfsz	9,f	;Have we reached the end of clearing yet?
  1886  0169  2966               	goto	clrloop0	;have we reached the end yet?
  1887  016A  3400               	retlw	0	;all done for this memory range, return
  1888                           
  1889                           	psect	cstackCOMMON
  1890  0070                     __pcstackCOMMON:	
  1891  0070                     ?_PutFloatInto_rVar:	
  1892  0070                     ?_PIN_MANAGER_Initialize:	
  1893                           ; 1 bytes @ 0x0
  1894                           
  1895  0070                     ?_OSCILLATOR_Initialize:	
  1896                           ; 1 bytes @ 0x0
  1897                           
  1898  0070                     ?_I2C1_Initialize:	
  1899                           ; 1 bytes @ 0x0
  1900                           
  1901  0070                     ?_I2C1_ISR:	
  1902                           ; 1 bytes @ 0x0
  1903                           
  1904  0070                     ?_INTERRUPT_InterruptManager:	
  1905                           ; 1 bytes @ 0x0
  1906                           
  1907  0070                     ?_SYSTEM_Initialize:	
  1908                           ; 1 bytes @ 0x0
  1909                           
  1910  0070                     ?_main:	
  1911                           ; 1 bytes @ 0x0
  1912                           
  1913  0070                     PutFloatInto_rVar@data:	
  1914                           ; 1 bytes @ 0x0
  1915                           
  1916                           
  1917                           ; 3 bytes @ 0x0
  1918  0070                     	ds	3
  1919  0073                     PutFloatInto_rVar@LastCMD:	
  1920                           
  1921                           ; 1 bytes @ 0x3
  1922  0073                     	ds	1
  1923  0074                     ??_PutFloatInto_rVar:	
  1924                           
  1925                           ; 1 bytes @ 0x4
  1926  0074                     	ds	1
  1927  0075                     PutFloatInto_rVar@floatUnion:	
  1928                           
  1929                           ; 4 bytes @ 0x5
  1930  0075                     	ds	4
  1931  0079                     PutFloatInto_rVar@xount:	
  1932                           
  1933                           ; 1 bytes @ 0x9
  1934  0079                     	ds	1
  1935  007A                     ?_I2C1_StatusCallback:	
  1936  007A                     I2C1_StatusCallback@dataI2C:	
  1937                           ; 1 bytes @ 0xA
  1938                           
  1939                           
  1940                           ; 1 bytes @ 0xA
  1941  007A                     	ds	1
  1942  007B                     ??_I2C1_StatusCallback:	
  1943                           
  1944                           ; 1 bytes @ 0xB
  1945  007B                     	ds	1
  1946  007C                     I2C1_StatusCallback@i2c_bus_state:	
  1947                           
  1948                           ; 1 bytes @ 0xC
  1949  007C                     	ds	1
  1950  007D                     ??_I2C1_ISR:	
  1951                           
  1952                           ; 1 bytes @ 0xD
  1953  007D                     	ds	1
  1954                           
  1955                           	psect	cstackBANK0
  1956  0039                     __pcstackBANK0:	
  1957  0039                     I2C1_ISR@i2c_data:	
  1958                           
  1959                           ; 1 bytes @ 0x0
  1960  0039                     	ds	1
  1961  003A                     ??_INTERRUPT_InterruptManager:	
  1962                           
  1963                           ; 1 bytes @ 0x1
  1964  003A                     	ds	1
  1965  003B                     ??_PIN_MANAGER_Initialize:	
  1966  003B                     ??_OSCILLATOR_Initialize:	
  1967                           ; 1 bytes @ 0x2
  1968                           
  1969  003B                     ??_I2C1_Initialize:	
  1970                           ; 1 bytes @ 0x2
  1971                           
  1972  003B                     PIN_MANAGER_Initialize@state:	
  1973                           ; 1 bytes @ 0x2
  1974                           
  1975                           
  1976                           ; 1 bytes @ 0x2
  1977  003B                     	ds	1
  1978  003C                     ??_SYSTEM_Initialize:	
  1979  003C                     ??_main:	
  1980                           ; 1 bytes @ 0x3
  1981                           
  1982                           
  1983                           	psect	maintext
  1984  015D                     __pmaintext:	
  1985                           ; 1 bytes @ 0x3
  1986 ;;
  1987 ;;Main: autosize = 0, tempsize = 0, incstack = 0, save=0
  1988 ;;
  1989 ;; *************** function _main *****************
  1990 ;; Defined at:
  1991 ;;		line 51 in file "main.c"
  1992 ;; Parameters:    Size  Location     Type
  1993 ;;		None
  1994 ;; Auto vars:     Size  Location     Type
  1995 ;;		None
  1996 ;; Return value:  Size  Location     Type
  1997 ;;                  1    wreg      void 
  1998 ;; Registers used:
  1999 ;;		wreg, status,2, status,0, pclath, cstack
  2000 ;; Tracked objects:
  2001 ;;		On entry : B3F/0
  2002 ;;		On exit  : 0/0
  2003 ;;		Unchanged: 0/0
  2004 ;; Data sizes:     COMMON   BANK0   BANK1   BANK2   BANK3   BANK4   BANK5   BANK6   BANK7   BANK8   BANK9  BANK10  BANK1
      +1  BANK12
  2005 ;;      Params:         0       0       0       0       0       0       0       0       0       0       0       0       
      +0       0
  2006 ;;      Locals:         0       0       0       0       0       0       0       0       0       0       0       0       
      +0       0
  2007 ;;      Temps:          0       0       0       0       0       0       0       0       0       0       0       0       
      +0       0
  2008 ;;      Totals:         0       0       0       0       0       0       0       0       0       0       0       0       
      +0       0
  2009 ;;Total ram usage:        0 bytes
  2010 ;; Hardware stack levels required when called:    6
  2011 ;; This function calls:
  2012 ;;		_SYSTEM_Initialize
  2013 ;; This function is called by:
  2014 ;;		Startup code after reset
  2015 ;; This function uses a non-reentrant model
  2016 ;;
  2017                           
  2018                           
  2019                           ;psect for function _main
  2020  015D                     _main:	
  2021                           
  2022                           ;main.c: 54: SYSTEM_Initialize();
  2023                           
  2024                           ;incstack = 0
  2025                           ; Regs used in _main: [wreg+status,2+status,0+pclath+cstack]
  2026  015D  3181  2154  3181   	fcall	_SYSTEM_Initialize
  2027                           
  2028                           ;main.c: 60: (INTCONbits.GIE = 1);
  2029  0160  178B               	bsf	11,7	;volatile
  2030                           
  2031                           ;main.c: 63: (INTCONbits.PEIE = 1);
  2032  0161  170B               	bsf	11,6	;volatile
  2033                           
  2034                           ;main.c: 72: do { LATCbits.LATC7 = 0; } while(0);
  2035  0162  0140               	movlb	0	; select bank0
  2036  0163  139A               	bcf	26,7	;volatile
  2037  0164                     l184:	
  2038                           ;main.c: 75: while (1)
  2039                           
  2040                           
  2041                           ;main.c: 76: {
  2042  0164  2964               	goto	l184
  2043  0165                     __end_of_main:	
  2044                           
  2045                           	psect	text1
  2046  0154                     __ptext1:	
  2047 ;; *************** function _SYSTEM_Initialize *****************
  2048 ;; Defined at:
  2049 ;;		line 86 in file "mcc_generated_files/mcc.c"
  2050 ;; Parameters:    Size  Location     Type
  2051 ;;		None
  2052 ;; Auto vars:     Size  Location     Type
  2053 ;;		None
  2054 ;; Return value:  Size  Location     Type
  2055 ;;                  1    wreg      void 
  2056 ;; Registers used:
  2057 ;;		wreg, status,2, status,0, pclath, cstack
  2058 ;; Tracked objects:
  2059 ;;		On entry : 0/0
  2060 ;;		On exit  : 0/0
  2061 ;;		Unchanged: 0/0
  2062 ;; Data sizes:     COMMON   BANK0   BANK1   BANK2   BANK3   BANK4   BANK5   BANK6   BANK7   BANK8   BANK9  BANK10  BANK1
      +1  BANK12
  2063 ;;      Params:         0       0       0       0       0       0       0       0       0       0       0       0       
      +0       0
  2064 ;;      Locals:         0       0       0       0       0       0       0       0       0       0       0       0       
      +0       0
  2065 ;;      Temps:          0       0       0       0       0       0       0       0       0       0       0       0       
      +0       0
  2066 ;;      Totals:         0       0       0       0       0       0       0       0       0       0       0       0       
      +0       0
  2067 ;;Total ram usage:        0 bytes
  2068 ;; Hardware stack levels used:    1
  2069 ;; Hardware stack levels required when called:    5
  2070 ;; This function calls:
  2071 ;;		_I2C1_Initialize
  2072 ;;		_OSCILLATOR_Initialize
  2073 ;;		_PIN_MANAGER_Initialize
  2074 ;; This function is called by:
  2075 ;;		_main
  2076 ;; This function uses a non-reentrant model
  2077 ;;
  2078                           
  2079                           
  2080                           ;psect for function _SYSTEM_Initialize
  2081  0154                     _SYSTEM_Initialize:	
  2082                           
  2083                           ;mcc.c: 89: PIN_MANAGER_Initialize();
  2084                           
  2085                           ;incstack = 0
  2086                           ; Regs used in _SYSTEM_Initialize: [wreg+status,2+status,0+pclath+cstack]
  2087  0154  3180  209C  3181   	fcall	_PIN_MANAGER_Initialize
  2088                           
  2089                           ;mcc.c: 90: OSCILLATOR_Initialize();
  2090  0157  3181  214A  3181   	fcall	_OSCILLATOR_Initialize
  2091                           
  2092                           ;mcc.c: 91: I2C1_Initialize();
  2093  015A  3181  2139         	fcall	_I2C1_Initialize
  2094  015C  0008               	return
  2095  015D                     __end_of_SYSTEM_Initialize:	
  2096                           
  2097                           	psect	text2
  2098  009C                     __ptext2:	
  2099 ;; *************** function _PIN_MANAGER_Initialize *****************
  2100 ;; Defined at:
  2101 ;;		line 51 in file "mcc_generated_files/pin_manager.c"
  2102 ;; Parameters:    Size  Location     Type
  2103 ;;		None
  2104 ;; Auto vars:     Size  Location     Type
  2105 ;;  state           1    2[BANK0 ] unsigned char 
  2106 ;; Return value:  Size  Location     Type
  2107 ;;                  1    wreg      void 
  2108 ;; Registers used:
  2109 ;;		wreg, status,2, status,0
  2110 ;; Tracked objects:
  2111 ;;		On entry : 0/0
  2112 ;;		On exit  : 0/0
  2113 ;;		Unchanged: 0/0
  2114 ;; Data sizes:     COMMON   BANK0   BANK1   BANK2   BANK3   BANK4   BANK5   BANK6   BANK7   BANK8   BANK9  BANK10  BANK1
      +1  BANK12
  2115 ;;      Params:         0       0       0       0       0       0       0       0       0       0       0       0       
      +0       0
  2116 ;;      Locals:         0       1       0       0       0       0       0       0       0       0       0       0       
      +0       0
  2117 ;;      Temps:          0       0       0       0       0       0       0       0       0       0       0       0       
      +0       0
  2118 ;;      Totals:         0       1       0       0       0       0       0       0       0       0       0       0       
      +0       0
  2119 ;;Total ram usage:        1 bytes
  2120 ;; Hardware stack levels used:    1
  2121 ;; Hardware stack levels required when called:    4
  2122 ;; This function calls:
  2123 ;;		Nothing
  2124 ;; This function is called by:
  2125 ;;		_SYSTEM_Initialize
  2126 ;; This function uses a non-reentrant model
  2127 ;;
  2128                           
  2129                           
  2130                           ;psect for function _PIN_MANAGER_Initialize
  2131  009C                     _PIN_MANAGER_Initialize:	
  2132                           
  2133                           ;pin_manager.c: 56: LATA = 0x00;
  2134                           
  2135                           ;incstack = 0
  2136                           ; Regs used in _PIN_MANAGER_Initialize: [wreg+status,2+status,0]
  2137  009C  0140               	movlb	0	; select bank0
  2138  009D  0198               	clrf	24	;volatile
  2139                           
  2140                           ;pin_manager.c: 57: LATB = 0x00;
  2141  009E  0199               	clrf	25	;volatile
  2142                           
  2143                           ;pin_manager.c: 58: LATC = 0x00;
  2144  009F  019A               	clrf	26	;volatile
  2145                           
  2146                           ;pin_manager.c: 63: TRISA = 0xFF;
  2147  00A0  30FF               	movlw	255
  2148  00A1  0092               	movwf	18	;volatile
  2149                           
  2150                           ;pin_manager.c: 64: TRISB = 0xFF;
  2151  00A2  30FF               	movlw	255
  2152  00A3  0093               	movwf	19	;volatile
  2153                           
  2154                           ;pin_manager.c: 65: TRISC = 0x7F;
  2155  00A4  307F               	movlw	127
  2156  00A5  0094               	movwf	20	;volatile
  2157                           
  2158                           ;pin_manager.c: 70: ANSELC = 0x67;
  2159  00A6  3067               	movlw	103
  2160  00A7  017E               	movlb	62	; select bank62
  2161  00A8  00CE               	movwf	78	;volatile
  2162                           
  2163                           ;pin_manager.c: 71: ANSELB = 0xFF;
  2164  00A9  30FF               	movlw	255
  2165  00AA  00C3               	movwf	67	;volatile
  2166                           
  2167                           ;pin_manager.c: 72: ANSELA = 0xFF;
  2168  00AB  30FF               	movlw	255
  2169  00AC  00B8               	movwf	56	;volatile
  2170                           
  2171                           ;pin_manager.c: 77: WPUE = 0x00;
  2172  00AD  01E5               	clrf	101	;volatile
  2173                           
  2174                           ;pin_manager.c: 78: WPUB = 0x00;
  2175  00AE  01C4               	clrf	68	;volatile
  2176                           
  2177                           ;pin_manager.c: 79: WPUA = 0x00;
  2178  00AF  01B9               	clrf	57	;volatile
  2179                           
  2180                           ;pin_manager.c: 80: WPUC = 0x00;
  2181  00B0  01CF               	clrf	79	;volatile
  2182                           
  2183                           ;pin_manager.c: 85: ODCONA = 0x00;
  2184  00B1  01BA               	clrf	58	;volatile
  2185                           
  2186                           ;pin_manager.c: 86: ODCONB = 0x00;
  2187  00B2  01C5               	clrf	69	;volatile
  2188                           
  2189                           ;pin_manager.c: 87: ODCONC = 0x00;
  2190  00B3  01D0               	clrf	80	;volatile
  2191                           
  2192                           ;pin_manager.c: 97: bool state = GIE;
  2193  00B4  3000               	movlw	0
  2194  00B5  1B8B               	btfsc	11,7	;volatile
  2195  00B6  3001               	movlw	1
  2196  00B7  0140               	movlb	0	; select bank0
  2197  00B8  00BB               	movwf	PIN_MANAGER_Initialize@state
  2198                           
  2199                           ;pin_manager.c: 98: GIE = 0;
  2200  00B9  138B               	bcf	11,7	;volatile
  2201                           
  2202                           ;pin_manager.c: 99: PPSLOCK = 0x55;
  2203  00BA  3055               	movlw	85
  2204  00BB  017D               	movlb	61	; select bank61
  2205  00BC  008F               	movwf	15	;volatile
  2206                           
  2207                           ;pin_manager.c: 100: PPSLOCK = 0xAA;
  2208  00BD  30AA               	movlw	170
  2209  00BE  008F               	movwf	15	;volatile
  2210                           
  2211                           ;pin_manager.c: 101: PPSLOCKbits.PPSLOCKED = 0x00;
  2212  00BF  100F               	bcf	15,0	;volatile
  2213                           
  2214                           ;pin_manager.c: 103: SSP1CLKPPSbits.SSP1CLKPPS = 0x13;
  2215  00C0  0845               	movf	69,w	;volatile
  2216  00C1  39C0               	andlw	-64
  2217  00C2  3813               	iorlw	19
  2218  00C3  00C5               	movwf	69	;volatile
  2219                           
  2220                           ;pin_manager.c: 104: SSP1DATPPSbits.SSP1DATPPS = 0x14;
  2221  00C4  0846               	movf	70,w	;volatile
  2222  00C5  39C0               	andlw	-64
  2223  00C6  3814               	iorlw	20
  2224  00C7  00C6               	movwf	70	;volatile
  2225                           
  2226                           ;pin_manager.c: 105: RC3PPS = 0x15;
  2227  00C8  3015               	movlw	21
  2228  00C9  017E               	movlb	62	; select bank62
  2229  00CA  00A3               	movwf	35	;volatile
  2230                           
  2231                           ;pin_manager.c: 106: RC4PPS = 0x16;
  2232  00CB  3016               	movlw	22
  2233  00CC  00A4               	movwf	36	;volatile
  2234                           
  2235                           ;pin_manager.c: 108: PPSLOCK = 0x55;
  2236  00CD  3055               	movlw	85
  2237  00CE  017D               	movlb	61	; select bank61
  2238  00CF  008F               	movwf	15	;volatile
  2239                           
  2240                           ;pin_manager.c: 109: PPSLOCK = 0xAA;
  2241  00D0  30AA               	movlw	170
  2242  00D1  008F               	movwf	15	;volatile
  2243                           
  2244                           ;pin_manager.c: 110: PPSLOCKbits.PPSLOCKED = 0x01;
  2245  00D2  140F               	bsf	15,0	;volatile
  2246                           
  2247                           ;pin_manager.c: 112: GIE = state;
  2248  00D3  0140               	movlb	0	; select bank0
  2249  00D4  1C3B               	btfss	PIN_MANAGER_Initialize@state,0
  2250  00D5  28D8               	goto	u140
  2251  00D6  178B               	bsf	11,7	;volatile
  2252  00D7  0008               	return
  2253  00D8                     u140:	
  2254  00D8  138B               	bcf	11,7	;volatile
  2255  00D9  0008               	return
  2256  00DA                     __end_of_PIN_MANAGER_Initialize:	
  2257                           
  2258                           	psect	text3
  2259  014A                     __ptext3:	
  2260 ;; *************** function _OSCILLATOR_Initialize *****************
  2261 ;; Defined at:
  2262 ;;		line 94 in file "mcc_generated_files/mcc.c"
  2263 ;; Parameters:    Size  Location     Type
  2264 ;;		None
  2265 ;; Auto vars:     Size  Location     Type
  2266 ;;		None
  2267 ;; Return value:  Size  Location     Type
  2268 ;;                  1    wreg      void 
  2269 ;; Registers used:
  2270 ;;		wreg, status,2
  2271 ;; Tracked objects:
  2272 ;;		On entry : 0/0
  2273 ;;		On exit  : 0/0
  2274 ;;		Unchanged: 0/0
  2275 ;; Data sizes:     COMMON   BANK0   BANK1   BANK2   BANK3   BANK4   BANK5   BANK6   BANK7   BANK8   BANK9  BANK10  BANK1
      +1  BANK12
  2276 ;;      Params:         0       0       0       0       0       0       0       0       0       0       0       0       
      +0       0
  2277 ;;      Locals:         0       0       0       0       0       0       0       0       0       0       0       0       
      +0       0
  2278 ;;      Temps:          0       0       0       0       0       0       0       0       0       0       0       0       
      +0       0
  2279 ;;      Totals:         0       0       0       0       0       0       0       0       0       0       0       0       
      +0       0
  2280 ;;Total ram usage:        0 bytes
  2281 ;; Hardware stack levels used:    1
  2282 ;; Hardware stack levels required when called:    4
  2283 ;; This function calls:
  2284 ;;		Nothing
  2285 ;; This function is called by:
  2286 ;;		_SYSTEM_Initialize
  2287 ;; This function uses a non-reentrant model
  2288 ;;
  2289                           
  2290                           
  2291                           ;psect for function _OSCILLATOR_Initialize
  2292  014A                     _OSCILLATOR_Initialize:	
  2293                           
  2294                           ;mcc.c: 97: OSCCON1 = 0x62;
  2295                           
  2296                           ;incstack = 0
  2297                           ; Regs used in _OSCILLATOR_Initialize: [wreg+status,2]
  2298  014A  3062               	movlw	98
  2299  014B  0151               	movlb	17	; select bank17
  2300  014C  008D               	movwf	13	;volatile
  2301                           
  2302                           ;mcc.c: 99: OSCCON3 = 0x00;
  2303  014D  018F               	clrf	15	;volatile
  2304                           
  2305                           ;mcc.c: 101: OSCEN = 0x00;
  2306  014E  0191               	clrf	17	;volatile
  2307                           
  2308                           ;mcc.c: 103: OSCFRQ = 0x02;
  2309  014F  3002               	movlw	2
  2310  0150  0093               	movwf	19	;volatile
  2311                           
  2312                           ;mcc.c: 105: OSCSTAT = 0x00;
  2313  0151  0190               	clrf	16	;volatile
  2314                           
  2315                           ;mcc.c: 107: OSCTUNE = 0x00;
  2316  0152  0192               	clrf	18	;volatile
  2317  0153  0008               	return
  2318  0154                     __end_of_OSCILLATOR_Initialize:	
  2319                           
  2320                           	psect	text4
  2321  0139                     __ptext4:	
  2322 ;; *************** function _I2C1_Initialize *****************
  2323 ;; Defined at:
  2324 ;;		line 83 in file "mcc_generated_files/i2c1.c"
  2325 ;; Parameters:    Size  Location     Type
  2326 ;;		None
  2327 ;; Auto vars:     Size  Location     Type
  2328 ;;		None
  2329 ;; Return value:  Size  Location     Type
  2330 ;;                  1    wreg      void 
  2331 ;; Registers used:
  2332 ;;		wreg
  2333 ;; Tracked objects:
  2334 ;;		On entry : 0/0
  2335 ;;		On exit  : 0/0
  2336 ;;		Unchanged: 0/0
  2337 ;; Data sizes:     COMMON   BANK0   BANK1   BANK2   BANK3   BANK4   BANK5   BANK6   BANK7   BANK8   BANK9  BANK10  BANK1
      +1  BANK12
  2338 ;;      Params:         0       0       0       0       0       0       0       0       0       0       0       0       
      +0       0
  2339 ;;      Locals:         0       0       0       0       0       0       0       0       0       0       0       0       
      +0       0
  2340 ;;      Temps:          0       0       0       0       0       0       0       0       0       0       0       0       
      +0       0
  2341 ;;      Totals:         0       0       0       0       0       0       0       0       0       0       0       0       
      +0       0
  2342 ;;Total ram usage:        0 bytes
  2343 ;; Hardware stack levels used:    1
  2344 ;; Hardware stack levels required when called:    4
  2345 ;; This function calls:
  2346 ;;		Nothing
  2347 ;; This function is called by:
  2348 ;;		_SYSTEM_Initialize
  2349 ;; This function uses a non-reentrant model
  2350 ;;
  2351                           
  2352                           
  2353                           ;psect for function _I2C1_Initialize
  2354  0139                     _I2C1_Initialize:	
  2355                           
  2356                           ;i2c1.c: 87: SSP1STAT = 0x80;
  2357                           
  2358                           ;incstack = 0
  2359                           ; Regs used in _I2C1_Initialize: [wreg]
  2360  0139  3080               	movlw	128
  2361  013A  0143               	movlb	3	; select bank3
  2362  013B  008F               	movwf	15	;volatile
  2363                           
  2364                           ;i2c1.c: 89: SSP1CON1 = 0x26;
  2365  013C  3026               	movlw	38
  2366  013D  0090               	movwf	16	;volatile
  2367                           
  2368                           ;i2c1.c: 91: SSP1CON2 = 0x01;
  2369  013E  3001               	movlw	1
  2370  013F  0091               	movwf	17	;volatile
  2371                           
  2372                           ;i2c1.c: 93: SSP1CON3 = 0x08;
  2373  0140  3008               	movlw	8
  2374  0141  0092               	movwf	18	;volatile
  2375                           
  2376                           ;i2c1.c: 95: SSP1MSK = (0x7F << 1);
  2377  0142  30FE               	movlw	254
  2378  0143  008E               	movwf	14	;volatile
  2379                           
  2380                           ;i2c1.c: 97: SSP1ADD = (0x22 << 1);
  2381  0144  3044               	movlw	68
  2382  0145  008D               	movwf	13	;volatile
  2383                           
  2384                           ;i2c1.c: 100: PIR3bits.SSP1IF = 0;
  2385  0146  014E               	movlb	14	; select bank14
  2386  0147  100F               	bcf	15,0	;volatile
  2387                           
  2388                           ;i2c1.c: 102: PIE3bits.SSP1IE = 1;
  2389  0148  1419               	bsf	25,0	;volatile
  2390  0149  0008               	return
  2391  014A                     __end_of_I2C1_Initialize:	
  2392                           
  2393                           	psect	intentry
  2394  0004                     __pintentry:	
  2395 ;; *************** function _INTERRUPT_InterruptManager *****************
  2396 ;; Defined at:
  2397 ;;		line 51 in file "mcc_generated_files/interrupt_manager.c"
  2398 ;; Parameters:    Size  Location     Type
  2399 ;;		None
  2400 ;; Auto vars:     Size  Location     Type
  2401 ;;		None
  2402 ;; Return value:  Size  Location     Type
  2403 ;;                  1    wreg      void 
  2404 ;; Registers used:
  2405 ;;		wreg, fsr0l, fsr0h, fsr1l, fsr1h, status,2, status,0, pclath, cstack
  2406 ;; Tracked objects:
  2407 ;;		On entry : 0/0
  2408 ;;		On exit  : 0/0
  2409 ;;		Unchanged: 0/0
  2410 ;; Data sizes:     COMMON   BANK0   BANK1   BANK2   BANK3   BANK4   BANK5   BANK6   BANK7   BANK8   BANK9  BANK10  BANK1
      +1  BANK12
  2411 ;;      Params:         0       0       0       0       0       0       0       0       0       0       0       0       
      +0       0
  2412 ;;      Locals:         0       0       0       0       0       0       0       0       0       0       0       0       
      +0       0
  2413 ;;      Temps:          0       1       0       0       0       0       0       0       0       0       0       0       
      +0       0
  2414 ;;      Totals:         0       1       0       0       0       0       0       0       0       0       0       0       
      +0       0
  2415 ;;Total ram usage:        1 bytes
  2416 ;; Hardware stack levels used:    1
  2417 ;; Hardware stack levels required when called:    3
  2418 ;; This function calls:
  2419 ;;		_I2C1_ISR
  2420 ;; This function is called by:
  2421 ;;		Interrupt level 1
  2422 ;; This function uses a non-reentrant model
  2423 ;;
  2424                           
  2425  0004                     _INTERRUPT_InterruptManager:	
  2426                           
  2427                           ;incstack = 0
  2428  0004  147E               	bsf	126,0	;set compiler interrupt flag (level 1)
  2429                           
  2430                           ; Regs used in _INTERRUPT_InterruptManager: [wreg-fsr1h+status,2+status,0+pclath+cstack]
  2431  0005  3180               	pagesel	$
  2432  0006  0140               	movlb	0	; select bank0
  2433  0007  087F               	movf	127,w
  2434  0008  00BA               	movwf	??_INTERRUPT_InterruptManager
  2435                           
  2436                           ;interrupt_manager.c: 54: if(INTCONbits.PEIE == 1 && PIE3bits.SSP1IE == 1 && PIR3bits.SS
      +                          P1IF == 1)
  2437  0009  1F0B               	btfss	11,6	;volatile
  2438  000A  2811               	goto	i1l97
  2439  000B  014E               	movlb	14	; select bank14
  2440  000C  1819               	btfsc	25,0	;volatile
  2441  000D  1C0F               	btfss	15,0	;volatile
  2442  000E  2811               	goto	i1l97
  2443                           
  2444                           ;interrupt_manager.c: 55: {
  2445                           ;interrupt_manager.c: 56: I2C1_ISR();
  2446  000F  3180  20DA         	fcall	_I2C1_ISR
  2447  0011                     i1l97:	
  2448                           ;interrupt_manager.c: 58: else
  2449                           ;interrupt_manager.c: 59: {
  2450                           
  2451                           ;interrupt_manager.c: 57: }
  2452                           
  2453  0011  0140               	movlb	0	; select bank0
  2454  0012  083A               	movf	??_INTERRUPT_InterruptManager,w
  2455  0013  00FF               	movwf	127
  2456  0014  107E               	bcf	126,0	;clear compiler interrupt flag (level 1)
  2457  0015  0009               	retfie
  2458  0016                     __end_of_INTERRUPT_InterruptManager:	
  2459                           
  2460                           	psect	text6
  2461  00DA                     __ptext6:	
  2462 ;; *************** function _I2C1_ISR *****************
  2463 ;; Defined at:
  2464 ;;		line 106 in file "mcc_generated_files/i2c1.c"
  2465 ;; Parameters:    Size  Location     Type
  2466 ;;		None
  2467 ;; Auto vars:     Size  Location     Type
  2468 ;;  i2c_data        1    0[BANK0 ] unsigned char 
  2469 ;; Return value:  Size  Location     Type
  2470 ;;                  1    wreg      void 
  2471 ;; Registers used:
  2472 ;;		wreg, fsr0l, fsr0h, fsr1l, fsr1h, status,2, status,0, pclath, cstack
  2473 ;; Tracked objects:
  2474 ;;		On entry : 0/0
  2475 ;;		On exit  : 0/0
  2476 ;;		Unchanged: 0/0
  2477 ;; Data sizes:     COMMON   BANK0   BANK1   BANK2   BANK3   BANK4   BANK5   BANK6   BANK7   BANK8   BANK9  BANK10  BANK1
      +1  BANK12
  2478 ;;      Params:         0       0       0       0       0       0       0       0       0       0       0       0       
      +0       0
  2479 ;;      Locals:         0       1       0       0       0       0       0       0       0       0       0       0       
      +0       0
  2480 ;;      Temps:          1       0       0       0       0       0       0       0       0       0       0       0       
      +0       0
  2481 ;;      Totals:         1       1       0       0       0       0       0       0       0       0       0       0       
      +0       0
  2482 ;;Total ram usage:        2 bytes
  2483 ;; Hardware stack levels used:    1
  2484 ;; Hardware stack levels required when called:    2
  2485 ;; This function calls:
  2486 ;;		_I2C1_StatusCallback
  2487 ;; This function is called by:
  2488 ;;		_INTERRUPT_InterruptManager
  2489 ;; This function uses a non-reentrant model
  2490 ;;
  2491                           
  2492                           
  2493                           ;psect for function _I2C1_ISR
  2494  00DA                     _I2C1_ISR:	
  2495                           
  2496                           ;i2c1.c: 108: uint8_t i2c_data = 0x55;
  2497                           
  2498                           ;incstack = 0
  2499                           ; Regs used in _I2C1_ISR: [wreg-fsr1h+status,2+status,0+pclath+cstack]
  2500  00DA  3055               	movlw	85
  2501  00DB  00FD               	movwf	??_I2C1_ISR
  2502  00DC  087D               	movf	??_I2C1_ISR,w
  2503  00DD  0140               	movlb	0	; select bank0
  2504  00DE  00B9               	movwf	I2C1_ISR@i2c_data
  2505                           
  2506                           ;i2c1.c: 114: PIR3bits.SSP1IF = 0;
  2507  00DF  014E               	movlb	14	; select bank14
  2508  00E0  100F               	bcf	15,0	;volatile
  2509                           
  2510                           ;i2c1.c: 115: i2c_data = SSP1BUF;
  2511  00E1  0143               	movlb	3	; select bank3
  2512  00E2  080C               	movf	12,w	;volatile
  2513  00E3  00FD               	movwf	??_I2C1_ISR
  2514  00E4  087D               	movf	??_I2C1_ISR,w
  2515  00E5  0140               	movlb	0	; select bank0
  2516  00E6  00B9               	movwf	I2C1_ISR@i2c_data
  2517                           
  2518                           ;i2c1.c: 116: if(1 == SSP1STATbits.R_nW)
  2519  00E7  0143               	movlb	3	; select bank3
  2520  00E8  1D0F               	btfss	15,2	;volatile
  2521  00E9  28FB               	goto	i1l54
  2522                           
  2523                           ;i2c1.c: 117: {
  2524                           ;i2c1.c: 118: if((1 == SSP1STATbits.D_nA) && (1 == SSP1CON2bits.ACKSTAT))
  2525  00EA  1A8F               	btfsc	15,5	;volatile
  2526  00EB  1F11               	btfss	17,6	;volatile
  2527  00EC  28F4               	goto	i1l840
  2528                           
  2529                           ;i2c1.c: 119: {
  2530                           ;i2c1.c: 121: I2C1_StatusCallback(I2C1_SLAVE_READ_COMPLETED, i2c_data);
  2531  00ED  0140               	movlb	0	; select bank0
  2532  00EE  0839               	movf	I2C1_ISR@i2c_data,w
  2533  00EF  00FD               	movwf	??_I2C1_ISR
  2534  00F0  087D               	movf	??_I2C1_ISR,w
  2535  00F1  00FA               	movwf	I2C1_StatusCallback@dataI2C
  2536  00F2  3003               	movlw	3
  2537  00F3  290E               	goto	L1
  2538  00F4                     i1l840:	
  2539                           ;i2c1.c: 122: }
  2540                           
  2541                           
  2542                           ;i2c1.c: 123: else
  2543                           ;i2c1.c: 124: {
  2544                           ;i2c1.c: 126: I2C1_StatusCallback(I2C1_SLAVE_READ_REQUEST, i2c_data);
  2545  00F4  0140               	movlb	0	; select bank0
  2546  00F5  0839               	movf	I2C1_ISR@i2c_data,w
  2547  00F6  00FD               	movwf	??_I2C1_ISR
  2548  00F7  087D               	movf	??_I2C1_ISR,w
  2549  00F8  00FA               	movwf	I2C1_StatusCallback@dataI2C
  2550  00F9  3001               	movlw	1
  2551  00FA  290E               	goto	L1
  2552  00FB                     i1l54:	
  2553                           ;i2c1.c: 127: }
  2554                           ;i2c1.c: 128: }
  2555                           
  2556                           
  2557                           ;i2c1.c: 129: else if(0 == SSP1STATbits.D_nA)
  2558  00FB  1A8F               	btfsc	15,5	;volatile
  2559  00FC  2904               	goto	i1l844
  2560                           
  2561                           ;i2c1.c: 130: {
  2562                           ;i2c1.c: 134: I2C1_StatusCallback(I2C1_SLAVE_WRITE_REQUEST, i2c_data);
  2563  00FD  0140               	movlb	0	; select bank0
  2564  00FE  0839               	movf	I2C1_ISR@i2c_data,w
  2565  00FF  00FD               	movwf	??_I2C1_ISR
  2566  0100  087D               	movf	??_I2C1_ISR,w
  2567  0101  00FA               	movwf	I2C1_StatusCallback@dataI2C
  2568  0102  3000               	movlw	0
  2569  0103  290E               	goto	L1
  2570  0104                     i1l844:	
  2571                           ;i2c1.c: 135: }
  2572                           
  2573                           
  2574                           ;i2c1.c: 136: else
  2575                           ;i2c1.c: 137: {
  2576                           ;i2c1.c: 138: I2C1_slaveWriteData = i2c_data;
  2577  0104  0140               	movlb	0	; select bank0
  2578  0105  0839               	movf	I2C1_ISR@i2c_data,w
  2579  0106  00FD               	movwf	??_I2C1_ISR
  2580  0107  087D               	movf	??_I2C1_ISR,w
  2581  0108  00B8               	movwf	_I2C1_slaveWriteData	;volatile
  2582                           
  2583                           ;i2c1.c: 141: I2C1_StatusCallback(I2C1_SLAVE_WRITE_COMPLETED, i2c_data);
  2584  0109  0839               	movf	I2C1_ISR@i2c_data,w
  2585  010A  00FD               	movwf	??_I2C1_ISR
  2586  010B  087D               	movf	??_I2C1_ISR,w
  2587  010C  00FA               	movwf	I2C1_StatusCallback@dataI2C
  2588  010D  3002               	movlw	2
  2589  010E                     L1:	
  2590  010E  3180  2033         	fcall	_I2C1_StatusCallback
  2591                           
  2592                           ;i2c1.c: 142: }
  2593                           ;i2c1.c: 144: SSP1CON1bits.CKP = 1;
  2594  0110  0143               	movlb	3	; select bank3
  2595  0111  1610               	bsf	16,4	;volatile
  2596  0112  0008               	return
  2597  0113                     __end_of_I2C1_ISR:	
  2598                           
  2599                           	psect	text7
  2600  0033                     __ptext7:	
  2601 ;; *************** function _I2C1_StatusCallback *****************
  2602 ;; Defined at:
  2603 ;;		line 155 in file "mcc_generated_files/i2c1.c"
  2604 ;; Parameters:    Size  Location     Type
  2605 ;;  i2c_bus_stat    1    wreg     enum E8788
  2606 ;;  dataI2C         1   10[COMMON] unsigned char 
  2607 ;; Auto vars:     Size  Location     Type
  2608 ;;  i2c_bus_stat    1   12[COMMON] enum E8788
  2609 ;; Return value:  Size  Location     Type
  2610 ;;                  1    wreg      void 
  2611 ;; Registers used:
  2612 ;;		wreg, fsr0l, fsr0h, fsr1l, fsr1h, status,2, status,0, pclath, cstack
  2613 ;; Tracked objects:
  2614 ;;		On entry : 0/0
  2615 ;;		On exit  : 0/0
  2616 ;;		Unchanged: 0/0
  2617 ;; Data sizes:     COMMON   BANK0   BANK1   BANK2   BANK3   BANK4   BANK5   BANK6   BANK7   BANK8   BANK9  BANK10  BANK1
      +1  BANK12
  2618 ;;      Params:         1       0       0       0       0       0       0       0       0       0       0       0       
      +0       0
  2619 ;;      Locals:         1       0       0       0       0       0       0       0       0       0       0       0       
      +0       0
  2620 ;;      Temps:          1       0       0       0       0       0       0       0       0       0       0       0       
      +0       0
  2621 ;;      Totals:         3       0       0       0       0       0       0       0       0       0       0       0       
      +0       0
  2622 ;;Total ram usage:        3 bytes
  2623 ;; Hardware stack levels used:    1
  2624 ;; Hardware stack levels required when called:    1
  2625 ;; This function calls:
  2626 ;;		_PutFloatInto_rVar
  2627 ;; This function is called by:
  2628 ;;		_I2C1_ISR
  2629 ;; This function uses a non-reentrant model
  2630 ;;
  2631                           
  2632                           
  2633                           ;psect for function _I2C1_StatusCallback
  2634  0033                     _I2C1_StatusCallback:	
  2635                           
  2636                           ;incstack = 0
  2637                           ; Regs used in _I2C1_StatusCallback: [wreg-fsr1h+status,2+status,0+pclath+cstack]
  2638                           ;I2C1_StatusCallback@i2c_bus_state stored from wreg
  2639  0033  00FC               	movwf	I2C1_StatusCallback@i2c_bus_state
  2640                           
  2641                           ;i2c1.c: 157: switch (i2c_bus_state)
  2642  0034  288D               	goto	i1l788
  2643  0035                     i1l750:	
  2644                           ;i2c1.c: 164: case I2C1_SLAVE_WRITE_COMPLETED:
  2645                           
  2646                           ;i2c1.c: 161: break;
  2647                           
  2648                           ;i2c1.c: 158: {
  2649                           ;i2c1.c: 159: case I2C1_SLAVE_WRITE_REQUEST:
  2650                           
  2651                           
  2652                           ;i2c1.c: 165: LastI2C1_CMD = dataI2C;
  2653  0035  087A               	movf	I2C1_StatusCallback@dataI2C,w
  2654  0036  00FB               	movwf	??_I2C1_StatusCallback
  2655  0037  087B               	movf	??_I2C1_StatusCallback,w
  2656  0038  0140               	movlb	0	; select bank0
  2657  0039  00B4               	movwf	_LastI2C1_CMD
  2658                           
  2659                           ;i2c1.c: 166: switch (LastI2C1_CMD){
  2660  003A  2849               	goto	i1l756
  2661  003B                     i1l69:	
  2662                           ;i2c1.c: 169: do { LATCbits.LATC7 = 1; } while(0);
  2663                           
  2664                           ;i2c1.c: 168: case (0xFF):
  2665                           
  2666  003B  179A               	bsf	26,7	;volatile
  2667                           
  2668                           ;i2c1.c: 170: PutFloatInto_rVar(DEV_ID, LastI2C1_CMD);
  2669  003C  0835               	movf	_DEV_ID,w
  2670  003D  00F0               	movwf	PutFloatInto_rVar@data
  2671  003E  0836               	movf	_DEV_ID+1,w
  2672  003F  00F1               	movwf	PutFloatInto_rVar@data+1
  2673  0040  0837               	movf	_DEV_ID+2,w
  2674  0041  00F2               	movwf	PutFloatInto_rVar@data+2
  2675  0042  0834               	movf	_LastI2C1_CMD,w
  2676  0043  00FB               	movwf	??_I2C1_StatusCallback
  2677  0044  087B               	movf	??_I2C1_StatusCallback,w
  2678  0045  00F3               	movwf	PutFloatInto_rVar@LastCMD
  2679  0046  3181  2113         	fcall	_PutFloatInto_rVar
  2680                           
  2681                           ;i2c1.c: 172: }
  2682                           
  2683                           ;i2c1.c: 171: break;
  2684  0048  0008               	return
  2685  0049                     i1l756:	
  2686  0049  0140               	movlb	0	; select bank0
  2687  004A  0834               	movf	_LastI2C1_CMD,w
  2688                           
  2689                           ; Switch size 1, requested type "space"
  2690                           ; Number of cases is 1, Range of values is 255 to 255
  2691                           ; switch strategies available:
  2692                           ; Name         Instructions Cycles
  2693                           ; simple_byte            4     3 (average)
  2694                           ; direct_byte            7     5 (fixed)
  2695                           ; jumptable            263     9 (fixed)
  2696                           ;	Chosen strategy is simple_byte
  2697  004B  3AFF               	xorlw	255	; case 255
  2698  004C  1903               	skipnz
  2699  004D  283B               	goto	i1l69
  2700  004E  289B               	goto	i1l84
  2701                           
  2702                           ;i2c1.c: 174: break;
  2703  004F  0008               	return
  2704  0050                     i1l758:	
  2705                           ;i2c1.c: 179: case 0x25:
  2706                           
  2707                           ;i2c1.c: 178: switch (LastI2C1_CMD){
  2708                           
  2709                           ;i2c1.c: 176: case I2C1_SLAVE_READ_REQUEST:
  2710                           
  2711                           
  2712                           ;i2c1.c: 180: SSP1BUF = rVAR_u;
  2713  0050  0833               	movf	_rVAR_u,w
  2714  0051  0143               	movlb	3	; select bank3
  2715  0052  008C               	movwf	12	;volatile
  2716                           
  2717                           ;i2c1.c: 181: break;
  2718  0053  0008               	return
  2719  0054                     i1l760:	
  2720                           ;i2c1.c: 182: case 0x01:
  2721                           
  2722                           
  2723                           ;i2c1.c: 183: SSP1BUF = rVAR[0];
  2724  0054  0140               	movlb	0	; select bank0
  2725  0055  082E               	movf	_rVAR,w
  2726  0056  0143               	movlb	3	; select bank3
  2727  0057  008C               	movwf	12	;volatile
  2728                           
  2729                           ;i2c1.c: 184: rVAR[0] = 0;
  2730  0058  0140               	movlb	0	; select bank0
  2731  0059  01AE               	clrf	_rVAR
  2732                           
  2733                           ;i2c1.c: 185: break;
  2734  005A  0008               	return
  2735  005B                     i1l764:	
  2736                           ;i2c1.c: 186: case 0x02:
  2737                           
  2738                           
  2739                           ;i2c1.c: 187: SSP1BUF = rVAR[1];
  2740  005B  082F               	movf	_rVAR+1,w
  2741  005C  0143               	movlb	3	; select bank3
  2742  005D  008C               	movwf	12	;volatile
  2743                           
  2744                           ;i2c1.c: 188: rVAR[1] = 0;
  2745  005E  0140               	movlb	0	; select bank0
  2746  005F  01AF               	clrf	_rVAR+1
  2747                           
  2748                           ;i2c1.c: 189: break;
  2749  0060  0008               	return
  2750  0061                     i1l768:	
  2751                           ;i2c1.c: 190: case 0x03:
  2752                           
  2753                           
  2754                           ;i2c1.c: 191: SSP1BUF = rVAR[2];
  2755  0061  0830               	movf	_rVAR+2,w
  2756  0062  0143               	movlb	3	; select bank3
  2757  0063  008C               	movwf	12	;volatile
  2758                           
  2759                           ;i2c1.c: 192: rVAR[2] = 0;
  2760  0064  0140               	movlb	0	; select bank0
  2761  0065  01B0               	clrf	_rVAR+2
  2762                           
  2763                           ;i2c1.c: 193: break;
  2764  0066  0008               	return
  2765  0067                     i1l772:	
  2766                           ;i2c1.c: 194: case 0x04:
  2767                           
  2768                           
  2769                           ;i2c1.c: 195: SSP1BUF = rVAR[3];
  2770  0067  0831               	movf	_rVAR+3,w
  2771  0068  0143               	movlb	3	; select bank3
  2772  0069  008C               	movwf	12	;volatile
  2773                           
  2774                           ;i2c1.c: 196: rVAR[3] = 0;
  2775  006A  0140               	movlb	0	; select bank0
  2776  006B  01B1               	clrf	_rVAR+3
  2777                           
  2778                           ;i2c1.c: 197: break;
  2779  006C  0008               	return
  2780  006D                     i1l776:	
  2781                           ;i2c1.c: 198: case 0x24:
  2782                           
  2783                           
  2784                           ;i2c1.c: 199: SSP1BUF = wMTQv[0];
  2785  006D  0820               	movf	_wMTQv,w
  2786  006E  0143               	movlb	3	; select bank3
  2787  006F  008C               	movwf	12	;volatile
  2788                           
  2789                           ;i2c1.c: 200: wVAR_u = 0x00;
  2790  0070  0140               	movlb	0	; select bank0
  2791  0071  01B2               	clrf	_wVAR_u
  2792                           
  2793                           ;i2c1.c: 201: break;
  2794  0072  0008               	return
  2795  0073                     i1l780:	
  2796                           ;i2c1.c: 203: default:
  2797                           
  2798                           
  2799                           ;i2c1.c: 204: SSP1BUF = LastI2C1_CMD;
  2800  0073  0834               	movf	_LastI2C1_CMD,w
  2801  0074  0143               	movlb	3	; select bank3
  2802  0075  008C               	movwf	12	;volatile
  2803                           
  2804                           ;i2c1.c: 206: }
  2805                           
  2806                           ;i2c1.c: 205: break;
  2807  0076  0008               	return
  2808  0077                     i1l784:	
  2809  0077  0140               	movlb	0	; select bank0
  2810  0078  0834               	movf	_LastI2C1_CMD,w
  2811                           
  2812                           ; Switch size 1, requested type "space"
  2813                           ; Number of cases is 6, Range of values is 1 to 37
  2814                           ; switch strategies available:
  2815                           ; Name         Instructions Cycles
  2816                           ; simple_byte           19    10 (average)
  2817                           ; direct_byte           83     9 (fixed)
  2818                           ; jumptable            263     9 (fixed)
  2819                           ;	Chosen strategy is simple_byte
  2820  0079  3A01               	xorlw	1	; case 1
  2821  007A  1903               	skipnz
  2822  007B  2854               	goto	i1l760
  2823  007C  3A03               	xorlw	3	; case 2
  2824  007D  1903               	skipnz
  2825  007E  285B               	goto	i1l764
  2826  007F  3A01               	xorlw	1	; case 3
  2827  0080  1903               	skipnz
  2828  0081  2861               	goto	i1l768
  2829  0082  3A07               	xorlw	7	; case 4
  2830  0083  1903               	skipnz
  2831  0084  2867               	goto	i1l772
  2832  0085  3A20               	xorlw	32	; case 36
  2833  0086  1903               	skipnz
  2834  0087  286D               	goto	i1l776
  2835  0088  3A01               	xorlw	1	; case 37
  2836  0089  1903               	skipnz
  2837  008A  2850               	goto	i1l758
  2838  008B  2873               	goto	i1l780
  2839                           
  2840                           ;i2c1.c: 217: }
  2841                           
  2842                           ;i2c1.c: 215: break;
  2843                           
  2844                           ;i2c1.c: 213: default:
  2845                           
  2846                           ;i2c1.c: 211: break;
  2847                           
  2848                           ;i2c1.c: 209: case I2C1_SLAVE_READ_COMPLETED:
  2849                           
  2850                           ;i2c1.c: 207: break;
  2851  008C  0008               	return
  2852  008D                     i1l788:	
  2853  008D  087C               	movf	I2C1_StatusCallback@i2c_bus_state,w
  2854                           
  2855                           ; Switch size 1, requested type "space"
  2856                           ; Number of cases is 4, Range of values is 0 to 3
  2857                           ; switch strategies available:
  2858                           ; Name         Instructions Cycles
  2859                           ; simple_byte           13     7 (average)
  2860                           ; direct_byte           14     6 (fixed)
  2861                           ; jumptable            260     6 (fixed)
  2862                           ;	Chosen strategy is simple_byte
  2863  008E  3A00               	xorlw	0	; case 0
  2864  008F  1903               	skipnz
  2865  0090  289B               	goto	i1l84
  2866  0091  3A01               	xorlw	1	; case 1
  2867  0092  1903               	skipnz
  2868  0093  2877               	goto	i1l784
  2869  0094  3A03               	xorlw	3	; case 2
  2870  0095  1903               	skipnz
  2871  0096  2835               	goto	i1l750
  2872  0097  3A01               	xorlw	1	; case 3
  2873  0098  1903               	skipnz
  2874  0099  289B               	goto	i1l84
  2875  009A  289B               	goto	i1l84
  2876  009B                     i1l84:	
  2877  009B  0008               	return
  2878  009C                     __end_of_I2C1_StatusCallback:	
  2879                           
  2880                           	psect	text8
  2881  0113                     __ptext8:	
  2882 ;; *************** function _PutFloatInto_rVar *****************
  2883 ;; Defined at:
  2884 ;;		line 6 in file "DESCENT.c"
  2885 ;; Parameters:    Size  Location     Type
  2886 ;;  data            3    0[COMMON] float 
  2887 ;;  LastCMD         1    3[COMMON] unsigned char 
  2888 ;; Auto vars:     Size  Location     Type
  2889 ;;  floatUnion      4    5[COMMON] struct .
  2890 ;;  xount           1    9[COMMON] unsigned char 
  2891 ;; Return value:  Size  Location     Type
  2892 ;;                  1    wreg      void 
  2893 ;; Registers used:
  2894 ;;		wreg, fsr1l, fsr1h, status,2, status,0
  2895 ;; Tracked objects:
  2896 ;;		On entry : 0/0
  2897 ;;		On exit  : 0/0
  2898 ;;		Unchanged: 0/0
  2899 ;; Data sizes:     COMMON   BANK0   BANK1   BANK2   BANK3   BANK4   BANK5   BANK6   BANK7   BANK8   BANK9  BANK10  BANK1
      +1  BANK12
  2900 ;;      Params:         4       0       0       0       0       0       0       0       0       0       0       0       
      +0       0
  2901 ;;      Locals:         5       0       0       0       0       0       0       0       0       0       0       0       
      +0       0
  2902 ;;      Temps:          1       0       0       0       0       0       0       0       0       0       0       0       
      +0       0
  2903 ;;      Totals:        10       0       0       0       0       0       0       0       0       0       0       0       
      +0       0
  2904 ;;Total ram usage:       10 bytes
  2905 ;; Hardware stack levels used:    1
  2906 ;; This function calls:
  2907 ;;		Nothing
  2908 ;; This function is called by:
  2909 ;;		_I2C1_StatusCallback
  2910 ;; This function uses a non-reentrant model
  2911 ;;
  2912                           
  2913                           
  2914                           ;psect for function _PutFloatInto_rVar
  2915  0113                     _PutFloatInto_rVar:	
  2916                           
  2917                           ;DESCENT.c: 7: union {
  2918                           ;DESCENT.c: 8: float FloatValue;
  2919                           ;DESCENT.c: 9: unsigned char bytesOfFloatValue[4];
  2920                           ;DESCENT.c: 10: } floatUnion;
  2921                           ;DESCENT.c: 12: floatUnion.FloatValue = data;
  2922                           
  2923                           ;incstack = 0
  2924                           ; Regs used in _PutFloatInto_rVar: [wreg+fsr1l+fsr1h+status,2+status,0]
  2925  0113  0870               	movf	PutFloatInto_rVar@data,w
  2926  0114  00F5               	movwf	PutFloatInto_rVar@floatUnion
  2927  0115  0871               	movf	PutFloatInto_rVar@data+1,w
  2928  0116  00F6               	movwf	PutFloatInto_rVar@floatUnion+1
  2929  0117  0872               	movf	PutFloatInto_rVar@data+2,w
  2930  0118  00F7               	movwf	PutFloatInto_rVar@floatUnion+2
  2931                           
  2932                           ;DESCENT.c: 14: uint8_t xount =0;
  2933  0119  01F9               	clrf	PutFloatInto_rVar@xount
  2934                           
  2935                           ;DESCENT.c: 15: for (xount=0; xount<4; ++xount){
  2936  011A  01F9               	clrf	PutFloatInto_rVar@xount
  2937  011B  3004               	movlw	4
  2938  011C  0279               	subwf	PutFloatInto_rVar@xount,w
  2939  011D  1803               	btfsc	3,0
  2940  011E  2933               	goto	i1l740
  2941  011F                     i1l734:	
  2942                           
  2943                           ;DESCENT.c: 16: rVAR[xount] = floatUnion.bytesOfFloatValue[xount];
  2944  011F  0879               	movf	PutFloatInto_rVar@xount,w
  2945  0120  3E75               	addlw	(low (PutFloatInto_rVar@floatUnion| 0))& (0+255)
  2946  0121  0086               	movwf	6
  2947  0122  0187               	clrf	7
  2948  0123  0801               	movf	1,w
  2949  0124  00F4               	movwf	??_PutFloatInto_rVar
  2950  0125  0879               	movf	PutFloatInto_rVar@xount,w
  2951  0126  3E2E               	addlw	(low (_rVAR| 0))& (0+255)
  2952  0127  0086               	movwf	6
  2953  0128  0187               	clrf	7
  2954  0129  0874               	movf	??_PutFloatInto_rVar,w
  2955  012A  0081               	movwf	1
  2956  012B  3001               	movlw	1
  2957  012C  00F4               	movwf	??_PutFloatInto_rVar
  2958  012D  0874               	movf	??_PutFloatInto_rVar,w
  2959  012E  07F9               	addwf	PutFloatInto_rVar@xount,f
  2960  012F  3004               	movlw	4
  2961  0130  0279               	subwf	PutFloatInto_rVar@xount,w
  2962  0131  1C03               	skipc
  2963  0132  291F               	goto	i1l734
  2964  0133                     i1l740:	
  2965                           
  2966                           ;DESCENT.c: 17: }
  2967                           ;DESCENT.c: 18: rVAR_u = LastCMD;
  2968  0133  0873               	movf	PutFloatInto_rVar@LastCMD,w
  2969  0134  00F4               	movwf	??_PutFloatInto_rVar
  2970  0135  0874               	movf	??_PutFloatInto_rVar,w
  2971  0136  0140               	movlb	0	; select bank0
  2972  0137  00B3               	movwf	_rVAR_u
  2973  0138  0008               	return
  2974  0139                     __end_of_PutFloatInto_rVar:	
  2975  007E                     btemp	set	126	;btemp
  2976  007E                     int$flags	set	126
  2977  007E                     wtemp0	set	126


Data Sizes:
    Strings     0
    Constant    0
    Data        4
    BSS         21
    Persistent  0
    Stack       0

Auto Spaces:
    Space          Size  Autos    Used
    COMMON           14     14      14
    BANK0            80      3      28
    BANK1            80      0       0
    BANK2            80      0       0
    BANK3            80      0       0
    BANK4            80      0       0
    BANK5            80      0       0
    BANK6            80      0       0
    BANK7            80      0       0
    BANK8            80      0       0
    BANK9            80      0       0
    BANK10           80      0       0
    BANK11           80      0       0
    BANK12           48      0       0

Pointer List with Targets:

    None.

Critical Paths under _main in COMMON

    None.

Critical Paths under _INTERRUPT_InterruptManager in COMMON

    _INTERRUPT_InterruptManager->_I2C1_ISR
    _I2C1_ISR->_I2C1_StatusCallback
    _I2C1_StatusCallback->_PutFloatInto_rVar

Critical Paths under _main in BANK0

    _SYSTEM_Initialize->_PIN_MANAGER_Initialize

Critical Paths under _INTERRUPT_InterruptManager in BANK0

    _INTERRUPT_InterruptManager->_I2C1_ISR

Critical Paths under _main in BANK1

    None.

Critical Paths under _INTERRUPT_InterruptManager in BANK1

    None.

Critical Paths under _main in BANK2

    None.

Critical Paths under _INTERRUPT_InterruptManager in BANK2

    None.

Critical Paths under _main in BANK3

    None.

Critical Paths under _INTERRUPT_InterruptManager in BANK3

    None.

Critical Paths under _main in BANK4

    None.

Critical Paths under _INTERRUPT_InterruptManager in BANK4

    None.

Critical Paths under _main in BANK5

    None.

Critical Paths under _INTERRUPT_InterruptManager in BANK5

    None.

Critical Paths under _main in BANK6

    None.

Critical Paths under _INTERRUPT_InterruptManager in BANK6

    None.

Critical Paths under _main in BANK7

    None.

Critical Paths under _INTERRUPT_InterruptManager in BANK7

    None.

Critical Paths under _main in BANK8

    None.

Critical Paths under _INTERRUPT_InterruptManager in BANK8

    None.

Critical Paths under _main in BANK9

    None.

Critical Paths under _INTERRUPT_InterruptManager in BANK9

    None.

Critical Paths under _main in BANK10

    None.

Critical Paths under _INTERRUPT_InterruptManager in BANK10

    None.

Critical Paths under _main in BANK11

    None.

Critical Paths under _INTERRUPT_InterruptManager in BANK11

    None.

Critical Paths under _main in BANK12

    None.

Critical Paths under _INTERRUPT_InterruptManager in BANK12

    None.

Call Graph Tables:

 ---------------------------------------------------------------------------------
 (Depth) Function   	        Calls       Base Space   Used Autos Params    Refs
 ---------------------------------------------------------------------------------
 (0) _main                                                 0     0      0      23
                  _SYSTEM_Initialize
 ---------------------------------------------------------------------------------
 (1) _SYSTEM_Initialize                                    0     0      0      23
                    _I2C1_Initialize
              _OSCILLATOR_Initialize
             _PIN_MANAGER_Initialize
 ---------------------------------------------------------------------------------
 (2) _PIN_MANAGER_Initialize                               1     1      0      23
                                              2 BANK0      1     1      0
 ---------------------------------------------------------------------------------
 (2) _OSCILLATOR_Initialize                                0     0      0       0
 ---------------------------------------------------------------------------------
 (2) _I2C1_Initialize                                      0     0      0       0
 ---------------------------------------------------------------------------------
 Estimated maximum stack depth 2
 ---------------------------------------------------------------------------------
 (Depth) Function   	        Calls       Base Space   Used Autos Params    Refs
 ---------------------------------------------------------------------------------
 (3) _INTERRUPT_InterruptManager                           1     1      0     573
                                              1 BANK0      1     1      0
                           _I2C1_ISR
 ---------------------------------------------------------------------------------
 (4) _I2C1_ISR                                             2     2      0     573
                                             13 COMMON     1     1      0
                                              0 BANK0      1     1      0
                _I2C1_StatusCallback
 ---------------------------------------------------------------------------------
 (5) _I2C1_StatusCallback                                  3     2      1     461
                                             10 COMMON     3     2      1
                  _PutFloatInto_rVar
 ---------------------------------------------------------------------------------
 (6) _PutFloatInto_rVar                                   10     6      4     245
                                              0 COMMON    10     6      4
 ---------------------------------------------------------------------------------
 Estimated maximum stack depth 6
 ---------------------------------------------------------------------------------

 Call Graph Graphs:

 _main (ROOT)
   _SYSTEM_Initialize
     _I2C1_Initialize
     _OSCILLATOR_Initialize
     _PIN_MANAGER_Initialize

 _INTERRUPT_InterruptManager (ROOT)
   _I2C1_ISR
     _I2C1_StatusCallback
       _PutFloatInto_rVar

 Address spaces:
Name               Size   Autos  Total    Cost      Usage
BIGRAM             3F0      0       0       0        0.0%
NULL                 0      0       0       0        0.0%
CODE                 0      0       0       0        0.0%
BITCOMMON            E      0       0       1        0.0%
BITSFR0              0      0       0       1        0.0%
SFR0                 0      0       0       1        0.0%
COMMON               E      E       E       2      100.0%
BITSFR1              0      0       0       2        0.0%
SFR1                 0      0       0       2        0.0%
BITSFR2              0      0       0       3        0.0%
SFR2                 0      0       0       3        0.0%
STACK                0      0       0       3        0.0%
BITSFR3              0      0       0       4        0.0%
SFR3                 0      0       0       4        0.0%
ABS                  0      0      2A       4        0.0%
BITBANK0            50      0       0       5        0.0%
BITSFR4              0      0       0       5        0.0%
SFR4                 0      0       0       5        0.0%
BANK0               50      3      1C       6       35.0%
BITSFR5              0      0       0       6        0.0%
SFR5                 0      0       0       6        0.0%
BITBANK1            50      0       0       7        0.0%
BITSFR6              0      0       0       7        0.0%
SFR6                 0      0       0       7        0.0%
BANK1               50      0       0       8        0.0%
BITSFR7              0      0       0       8        0.0%
SFR7                 0      0       0       8        0.0%
BITBANK2            50      0       0       9        0.0%
BITSFR8              0      0       0       9        0.0%
SFR8                 0      0       0       9        0.0%
BANK2               50      0       0      10        0.0%
BITSFR9              0      0       0      10        0.0%
SFR9                 0      0       0      10        0.0%
BITBANK3            50      0       0      11        0.0%
BITSFR10             0      0       0      11        0.0%
SFR10                0      0       0      11        0.0%
BANK3               50      0       0      12        0.0%
BITSFR11             0      0       0      12        0.0%
SFR11                0      0       0      12        0.0%
BITBANK4            50      0       0      13        0.0%
BITSFR12             0      0       0      13        0.0%
SFR12                0      0       0      13        0.0%
BANK4               50      0       0      14        0.0%
BITSFR13             0      0       0      14        0.0%
SFR13                0      0       0      14        0.0%
BITBANK5            50      0       0      15        0.0%
BITSFR14             0      0       0      15        0.0%
SFR14                0      0       0      15        0.0%
BANK5               50      0       0      16        0.0%
BITSFR15             0      0       0      16        0.0%
SFR15                0      0       0      16        0.0%
BITBANK6            50      0       0      17        0.0%
BITSFR16             0      0       0      17        0.0%
SFR16                0      0       0      17        0.0%
BANK6               50      0       0      18        0.0%
BITSFR17             0      0       0      18        0.0%
SFR17                0      0       0      18        0.0%
BITBANK7            50      0       0      19        0.0%
BITSFR18             0      0       0      19        0.0%
SFR18                0      0       0      19        0.0%
BANK7               50      0       0      20        0.0%
BITSFR19             0      0       0      20        0.0%
SFR19                0      0       0      20        0.0%
BITBANK8            50      0       0      21        0.0%
BITSFR20             0      0       0      21        0.0%
SFR20                0      0       0      21        0.0%
BANK8               50      0       0      22        0.0%
BITSFR21             0      0       0      22        0.0%
SFR21                0      0       0      22        0.0%
BITBANK9            50      0       0      23        0.0%
BITSFR22             0      0       0      23        0.0%
SFR22                0      0       0      23        0.0%
BANK9               50      0       0      24        0.0%
BITSFR23             0      0       0      24        0.0%
SFR23                0      0       0      24        0.0%
BITBANK10           50      0       0      25        0.0%
BITSFR24             0      0       0      25        0.0%
SFR24                0      0       0      25        0.0%
BANK10              50      0       0      26        0.0%
BITSFR25             0      0       0      26        0.0%
SFR25                0      0       0      26        0.0%
BITBANK11           50      0       0      27        0.0%
BITSFR26             0      0       0      27        0.0%
SFR26                0      0       0      27        0.0%
BANK11              50      0       0      28        0.0%
BITSFR27             0      0       0      28        0.0%
SFR27                0      0       0      28        0.0%
BITBANK12           30      0       0      29        0.0%
BITSFR28             0      0       0      29        0.0%
SFR28                0      0       0      29        0.0%
BANK12              30      0       0      30        0.0%
BITSFR29             0      0       0      30        0.0%
SFR29                0      0       0      30        0.0%
BITSFR30             0      0       0      31        0.0%
SFR30                0      0       0      31        0.0%
DATA                 0      0      2A      31        0.0%
BITSFR31             0      0       0      32        0.0%
SFR31                0      0       0      32        0.0%
BITSFR32             0      0       0      33        0.0%
SFR32                0      0       0      33        0.0%
BITSFR33             0      0       0      34        0.0%
SFR33                0      0       0      34        0.0%
BITSFR34             0      0       0      35        0.0%
SFR34                0      0       0      35        0.0%
BITSFR35             0      0       0      36        0.0%
SFR35                0      0       0      36        0.0%
BITSFR36             0      0       0      37        0.0%
SFR36                0      0       0      37        0.0%
BITSFR37             0      0       0      38        0.0%
SFR37                0      0       0      38        0.0%
BITSFR38             0      0       0      39        0.0%
SFR38                0      0       0      39        0.0%
BITSFR39             0      0       0      40        0.0%
SFR39                0      0       0      40        0.0%
BITSFR40             0      0       0      41        0.0%
SFR40                0      0       0      41        0.0%
BITSFR41             0      0       0      42        0.0%
SFR41                0      0       0      42        0.0%
BITSFR42             0      0       0      43        0.0%
SFR42                0      0       0      43        0.0%
BITSFR43             0      0       0      44        0.0%
SFR43                0      0       0      44        0.0%
BITSFR44             0      0       0      45        0.0%
SFR44                0      0       0      45        0.0%
BITSFR45             0      0       0      46        0.0%
SFR45                0      0       0      46        0.0%
BITSFR46             0      0       0      47        0.0%
SFR46                0      0       0      47        0.0%
BITSFR47             0      0       0      48        0.0%
SFR47                0      0       0      48        0.0%
BITSFR48             0      0       0      49        0.0%
SFR48                0      0       0      49        0.0%
BITSFR49             0      0       0      50        0.0%
SFR49                0      0       0      50        0.0%
BITSFR50             0      0       0      51        0.0%
SFR50                0      0       0      51        0.0%
BITSFR51             0      0       0      52        0.0%
SFR51                0      0       0      52        0.0%
BITSFR52             0      0       0      53        0.0%
SFR52                0      0       0      53        0.0%
BITSFR53             0      0       0      54        0.0%
SFR53                0      0       0      54        0.0%
BITSFR54             0      0       0      55        0.0%
SFR54                0      0       0      55        0.0%
BITSFR55             0      0       0      56        0.0%
SFR55                0      0       0      56        0.0%
BITSFR56             0      0       0      57        0.0%
SFR56                0      0       0      57        0.0%
BITSFR57             0      0       0      58        0.0%
SFR57                0      0       0      58        0.0%
BITSFR58             0      0       0      59        0.0%
SFR58                0      0       0      59        0.0%
BITSFR59             0      0       0      60        0.0%
SFR59                0      0       0      60        0.0%
BITSFR60             0      0       0      61        0.0%
SFR60                0      0       0      61        0.0%
BITSFR61             0      0       0      62        0.0%
SFR61                0      0       0      62        0.0%
BITSFR62             0      0       0      63        0.0%
SFR62                0      0       0      63        0.0%
BITSFR63             0      0       0      64        0.0%
SFR63                0      0       0      64        0.0%


Microchip Technology PIC Macro Assembler V1.41 build -162212810 
Symbol Table                                                                                   Mon Jun 26 08:00:09 2017

                        __CFG_CP$OFF 0000                          __CFG_LVP$ON 0000  
                                l184 0164                                  _GIE 005F  
                                u140 00D8                         __CFG_BORV$LO 0000  
                                wreg 0009                        __CFG_BBEN$OFF 0000  
                       __CFG_ZCD$OFF 0000                     __end_of_I2C1_ISR 0113  
                               _LATA 0018                                 _LATB 0019  
                               _LATC 001A                                 i1l54 00FB  
                               i1l84 009B                                 i1l69 003B  
                               i1l97 0011                                 _WPUA 1F39  
                               _WPUB 1F44                                 _WPUC 1F4F  
                               _WPUE 1F65                        __CFG_FCMEN$ON 0000  
                               _rVAR 002E                                 _wVAR 002A  
                               _main 015D                                 fsr0h 0005  
                               fsr1h 0007                                 indf0 0000  
                               fsr0l 0004                                 indf1 0001  
                               fsr1l 0006                                 btemp 007E  
                      __CFG_BOREN$ON 0000                                 start 0016  
                      __CFG_CSWEN$ON 0000                        __CFG_MCLRE$ON 0000  
                _I2C1_StatusCallback 0033       __size_of_OSCILLATOR_Initialize 000A  
      __end_of_OSCILLATOR_Initialize 0154                                ?_main 0070  
                      __CFG_WDTE$OFF 0000                                i1l740 0133  
                              i1l734 011F                                i1l750 0035  
                              i1l760 0054                                i1l840 00F4  
                              i1l780 0073                                i1l772 0067  
                              i1l764 005B                                i1l756 0049  
                              i1l844 0104                                i1l758 0050  
                              i1l776 006D                                i1l768 0061  
                              i1l784 0077                                i1l788 008D  
                              _OSCEN 0891                                _TRISA 0012  
                              _TRISB 0013                                _TRISC 0014  
                  ??_I2C1_Initialize 003B                 ?_I2C1_StatusCallback 007A  
                      __CFG_WRTB$OFF 0000                        __CFG_WRTC$OFF 0000  
                              _wMTQv 0020                                wtemp0 007E  
                    __initialization 0018                         __end_of_main 0165  
                     __CFG_SAFEN$OFF 0000          ?_INTERRUPT_InterruptManager 0070  
                             ??_main 003C                ??_I2C1_StatusCallback 007B  
                             _ANSELA 1F38                               _ANSELB 1F43  
                             _ANSELC 1F4E                   __CFG_RSTOSC$HFINT1 0000  
                             _DEV_ID 0035                               _RC3PPS 1F23  
                             _RC4PPS 1F24                               _ODCONA 1F3A  
                             _ODCONB 1F45                               _ODCONC 1F50  
                     __CFG_WDTCCS$SC 0000                               _OSCFRQ 0893  
                         _SerialLast 0026                       __CFG_PWRTE$OFF 0000  
                             _rVAR_u 0033                               _wVAR_u 0032  
                     __CFG_STVREN$ON 0000                            ?_I2C1_ISR 0070  
              PutFloatInto_rVar@data 0070                    _SYSTEM_Initialize 0154  
            __end_of__initialization 002F                    _PutFloatInto_rVar 0113  
                 ?_SYSTEM_Initialize 0070                   ?_PutFloatInto_rVar 0070  
                     __pcstackCOMMON 0070                         __pidataBANK0 016B  
                ??_SYSTEM_Initialize 003C                  ??_PutFloatInto_rVar 0074  
                         ??_I2C1_ISR 007D            __end_of_SYSTEM_Initialize 015D  
          __end_of_PutFloatInto_rVar 0139                           __pbssBANK0 0020  
                     _SSP1DATPPSbits 1EC6                           __pmaintext 015D  
         I2C1_StatusCallback@dataI2C 007A                      __CFG_PPS1WAY$ON 0000  
                         __pintentry 0004                      _I2C1_Initialize 0139  
                     _SSP1CLKPPSbits 1EC5                              _OSCCON1 088D  
                            _OSCCON3 088F                              _OSCSTAT 0890  
                            _OSCTUNE 0892                              _SSP1ADD 018D  
                            _PPSLOCK 1E8F                              _SSP1BUF 018C  
                            _SSP1MSK 018E                         _LastI2C1_CMD 0034  
                            __ptext1 0154                              __ptext2 009C  
                            __ptext3 014A                              __ptext4 0139  
                            __ptext6 00DA                              __ptext7 0033  
                            __ptext8 0113                      __CFG_WRTAPP$OFF 0000  
              _OSCILLATOR_Initialize 014A             ??_PIN_MANAGER_Initialize 003B  
                    __CFG_WRTSAF$OFF 0000               PutFloatInto_rVar@xount 0079  
         __size_of_SYSTEM_Initialize 0009                              clrloop0 0166  
               end_of_initialization 002F           __size_of_PutFloatInto_rVar 0026  
            __end_of_I2C1_Initialize 014A                __CFG_WDTCPS$WDTCPS_31 0000  
        __end_of_I2C1_StatusCallback 009C                    __size_of_I2C1_ISR 0039  
                   __CFG_FEXTOSC$OFF 0000               ?_OSCILLATOR_Initialize 0070  
                start_initialization 0018      __size_of_PIN_MANAGER_Initialize 003E  
                   ?_I2C1_Initialize 0070                     __CFG_LPBOREN$OFF 0000  
                   I2C1_ISR@i2c_data 0039                          __pdataBANK0 0035  
                          ___latbits 0002                        __pcstackBANK0 0039  
   I2C1_StatusCallback@i2c_bus_state 007C               _PIN_MANAGER_Initialize 009C  
                           _I2C1_ISR 00DA         ??_INTERRUPT_InterruptManager 003A  
           PutFloatInto_rVar@LastCMD 0073                             _LATCbits 001A  
                          clear_ram0 0165                             _PIE3bits 0719  
__size_of_INTERRUPT_InterruptManager 0012                             _PIR3bits 070F  
                  __CFG_BBSIZE$BB512 0000                             _SSP1CON1 0190  
                           _SSP1CON2 0191                             _SSP1CON3 0192  
                           _SSP1STAT 018F                  _I2C1_slaveWriteData 0038  
        PutFloatInto_rVar@floatUnion 0075              ??_OSCILLATOR_Initialize 003B  
       __size_of_I2C1_StatusCallback 0069                         _SSP1CON1bits 0190  
                       _SSP1CON2bits 0191                        __size_of_main 0008  
               __CFG_WDTCWS$WDTCWS_7 0000                             int$flags 007E  
 __end_of_INTERRUPT_InterruptManager 0016           _INTERRUPT_InterruptManager 0004  
                       _SSP1STATbits 018F          PIN_MANAGER_Initialize@state 003B  
                         _INTCONbits 000B                             intlevel1 0000  
            ?_PIN_MANAGER_Initialize 0070                    __CFG_CLKOUTEN$OFF 0000  
                        _PPSLOCKbits 1E8F             __size_of_I2C1_Initialize 0011  
     __end_of_PIN_MANAGER_Initialize 00DA  
