

Microchip Technology PIC LITE Macro Assembler V1.41 build -162212810 
                                                                                               Mon Jun 26 07:53:58 2017

Microchip Technology Omniscient Code Generator v1.41 (Free mode) build 201701250102
     1                           	processor	16F15355
     2                           	opt	pw 120
     3                           	opt	lm
     4                           	psect	idataBANK0,global,class=CODE,delta=2
     5                           	psect	idataBANK1,global,class=CODE,delta=2
     6                           	psect	nvBANK1,global,class=BANK1,space=1,delta=1
     7                           	psect	cinit,global,class=CODE,merge=1,delta=2
     8                           	psect	bssBANK0,global,class=BANK0,space=1,delta=1
     9                           	psect	dataBANK0,global,class=BANK0,space=1,delta=1
    10                           	psect	bssBANK1,global,class=BANK1,space=1,delta=1
    11                           	psect	dataBANK1,global,class=BANK1,space=1,delta=1
    12                           	psect	clrtext,global,class=CODE,delta=2
    13                           	psect	cstackBANK1,global,class=BANK1,space=1,delta=1
    14                           	psect	cstackCOMMON,global,class=COMMON,space=1,delta=1
    15                           	psect	cstackBANK0,global,class=BANK0,space=1,delta=1
    16                           	psect	maintext,global,class=CODE,merge=1,split=1,delta=2
    17                           	psect	text1,local,class=CODE,merge=1,delta=2
    18                           	psect	text2,local,class=CODE,merge=1,delta=2
    19                           	psect	text3,local,class=CODE,merge=1,delta=2
    20                           	psect	text4,local,class=CODE,merge=1,delta=2
    21                           	psect	text5,local,class=CODE,merge=1,delta=2
    22                           	psect	intentry,global,class=CODE,delta=2
    23                           	psect	text7,local,class=CODE,merge=1,delta=2
    24                           	psect	text8,local,class=CODE,merge=1,delta=2
    25                           	psect	text9,local,class=CODE,merge=1,delta=2
    26                           	psect	text10,local,class=CODE,merge=1,delta=2
    27                           	psect	text11,local,class=CODE,merge=1,delta=2,group=1
    28                           	psect	text12,local,class=CODE,merge=1,delta=2,group=1
    29                           	psect	text13,local,class=CODE,merge=1,delta=2,group=1
    30                           	psect	text14,local,class=CODE,merge=1,delta=2,group=1
    31                           	psect	text15,local,class=CODE,merge=1,delta=2,group=1
    32                           	psect	text16,local,class=CODE,merge=1,delta=2,group=1
    33                           	psect	text17,local,class=CODE,merge=1,delta=2
    34                           	psect	text18,local,class=CODE,merge=1,delta=2
    35                           	psect	text19,local,class=CODE,merge=1,delta=2
    36                           	dabs	1,0x7E,2
    37  0000                     
    38                           ; Version 1.41
    39                           ; Generated 25/01/2017 GMT
    40                           ; 
    41                           ; Copyright © 2017, Microchip Technology Inc. and its subsidiaries ("Microchip")
    42                           ; All rights reserved.
    43                           ; 
    44                           ; This software is developed by Microchip Technology Inc. and its subsidiaries ("Microch
      +                          ip").
    45                           ; 
    46                           ; Redistribution and use in source and binary forms, with or without modification, are
    47                           ; permitted provided that the following conditions are met:
    48                           ; 
    49                           ;     1. Redistributions of source code must retain the above copyright notice, this lis
      +                          t of
    50                           ;        conditions and the following disclaimer.
    51                           ; 
    52                           ;     2. Redistributions in binary form must reproduce the above copyright notice, this 
      +                          list
    53                           ;        of conditions and the following disclaimer in the documentation and/or other
    54                           ;        materials provided with the distribution.
    55                           ; 
    56                           ;     3. Microchip's name may not be used to endorse or promote products derived from th
      +                          is
    57                           ;        software without specific prior written permission.
    58                           ; 
    59                           ; THIS SOFTWARE IS PROVIDED BY MICROCHIP "AS IS" AND ANY EXPRESS OR IMPLIED WARRANTIES,
    60                           ; INCLUDING, BUT NOT LIMITED TO, THE IMPLIED WARRANTIES OF MERCHANTABILITY AND FITNESS F
      +                          OR
    61                           ; PURPOSE ARE DISCLAIMED.  IN NO EVENT SHALL MICROCHIP BE LIABLE FOR ANY DIRECT, INDIREC
      +                          T,
    62                           ; INCIDENTAL, SPECIAL, EXEMPLARY, OR CONSEQUENTIAL DAMAGES (INCLUDING BUT NOT LIMITED TO
    63                           ; PROCUREMENT OF SUBSTITUTE GOODS OR SERVICES; LOSS OF USE, DATA OR PROFITS; OR BUSINESS
    64                           ; INTERRUPTION) HOWSOEVER CAUSED AND ON ANY THEORY OF LIABILITY, WHETHER IN CONTRACT, ST
      +                          RICT
    65                           ; LIABILITY, OR TORT (INCLUDING NEGLIGENCE OR OTHERWISE) ARISING IN ANY WAY OUT OF THE U
      +                          SE OF
    66                           ; THIS SOFTWARE, EVEN IF ADVISED OF THE POSSIBILITY OF SUCH DAMAGE.
    67                           ; 
    68                           ; 
    69                           ; Code-generator required, PIC16F15355 Definitions
    70                           ; 
    71                           ; SFR Addresses
    72  0000                     	;# 
    73  0001                     	;# 
    74  0002                     	;# 
    75  0003                     	;# 
    76  0004                     	;# 
    77  0005                     	;# 
    78  0006                     	;# 
    79  0007                     	;# 
    80  0008                     	;# 
    81  0009                     	;# 
    82  000A                     	;# 
    83  000B                     	;# 
    84  000C                     	;# 
    85  000D                     	;# 
    86  000E                     	;# 
    87  0010                     	;# 
    88  0012                     	;# 
    89  0013                     	;# 
    90  0014                     	;# 
    91  0018                     	;# 
    92  0019                     	;# 
    93  001A                     	;# 
    94  009B                     	;# 
    95  009B                     	;# 
    96  009C                     	;# 
    97  009D                     	;# 
    98  009E                     	;# 
    99  009F                     	;# 
   100  0119                     	;# 
   101  0119                     	;# 
   102  0119                     	;# 
   103  011A                     	;# 
   104  011A                     	;# 
   105  011A                     	;# 
   106  011B                     	;# 
   107  011B                     	;# 
   108  011B                     	;# 
   109  011B                     	;# 
   110  011B                     	;# 
   111  011C                     	;# 
   112  011C                     	;# 
   113  011C                     	;# 
   114  011D                     	;# 
   115  011D                     	;# 
   116  011D                     	;# 
   117  011E                     	;# 
   118  011E                     	;# 
   119  011E                     	;# 
   120  011F                     	;# 
   121  011F                     	;# 
   122  011F                     	;# 
   123  011F                     	;# 
   124  011F                     	;# 
   125  018C                     	;# 
   126  018D                     	;# 
   127  018E                     	;# 
   128  018F                     	;# 
   129  0190                     	;# 
   130  0191                     	;# 
   131  0192                     	;# 
   132  0196                     	;# 
   133  0197                     	;# 
   134  0198                     	;# 
   135  0199                     	;# 
   136  019A                     	;# 
   137  019B                     	;# 
   138  019C                     	;# 
   139  020C                     	;# 
   140  020C                     	;# 
   141  020D                     	;# 
   142  020E                     	;# 
   143  020F                     	;# 
   144  020F                     	;# 
   145  0210                     	;# 
   146  0210                     	;# 
   147  0211                     	;# 
   148  0211                     	;# 
   149  028C                     	;# 
   150  028C                     	;# 
   151  028D                     	;# 
   152  028D                     	;# 
   153  028E                     	;# 
   154  028F                     	;# 
   155  0290                     	;# 
   156  0291                     	;# 
   157  030C                     	;# 
   158  030C                     	;# 
   159  030D                     	;# 
   160  030E                     	;# 
   161  030F                     	;# 
   162  0310                     	;# 
   163  0310                     	;# 
   164  0311                     	;# 
   165  0312                     	;# 
   166  0313                     	;# 
   167  0314                     	;# 
   168  0315                     	;# 
   169  0316                     	;# 
   170  0318                     	;# 
   171  0319                     	;# 
   172  031A                     	;# 
   173  031C                     	;# 
   174  031D                     	;# 
   175  031E                     	;# 
   176  038C                     	;# 
   177  038D                     	;# 
   178  038E                     	;# 
   179  058C                     	;# 
   180  058C                     	;# 
   181  058D                     	;# 
   182  058E                     	;# 
   183  058F                     	;# 
   184  058F                     	;# 
   185  0590                     	;# 
   186  0591                     	;# 
   187  0592                     	;# 
   188  0593                     	;# 
   189  059C                     	;# 
   190  059C                     	;# 
   191  059D                     	;# 
   192  059D                     	;# 
   193  059E                     	;# 
   194  059F                     	;# 
   195  060C                     	;# 
   196  060D                     	;# 
   197  060E                     	;# 
   198  060F                     	;# 
   199  0610                     	;# 
   200  0611                     	;# 
   201  0612                     	;# 
   202  0613                     	;# 
   203  0614                     	;# 
   204  070C                     	;# 
   205  070D                     	;# 
   206  070E                     	;# 
   207  070F                     	;# 
   208  0710                     	;# 
   209  0711                     	;# 
   210  0712                     	;# 
   211  0713                     	;# 
   212  0716                     	;# 
   213  0717                     	;# 
   214  0718                     	;# 
   215  0719                     	;# 
   216  071A                     	;# 
   217  071B                     	;# 
   218  071C                     	;# 
   219  071D                     	;# 
   220  0796                     	;# 
   221  0797                     	;# 
   222  0798                     	;# 
   223  0799                     	;# 
   224  079A                     	;# 
   225  079B                     	;# 
   226  080C                     	;# 
   227  080D                     	;# 
   228  080E                     	;# 
   229  080F                     	;# 
   230  0810                     	;# 
   231  0811                     	;# 
   232  0812                     	;# 
   233  0813                     	;# 
   234  0814                     	;# 
   235  081A                     	;# 
   236  081A                     	;# 
   237  081B                     	;# 
   238  081C                     	;# 
   239  081C                     	;# 
   240  081D                     	;# 
   241  081E                     	;# 
   242  081F                     	;# 
   243  088C                     	;# 
   244  088D                     	;# 
   245  088E                     	;# 
   246  088F                     	;# 
   247  0890                     	;# 
   248  0891                     	;# 
   249  0892                     	;# 
   250  0893                     	;# 
   251  0895                     	;# 
   252  0896                     	;# 
   253  090C                     	;# 
   254  090E                     	;# 
   255  090F                     	;# 
   256  091F                     	;# 
   257  098F                     	;# 
   258  098F                     	;# 
   259  0990                     	;# 
   260  0991                     	;# 
   261  0992                     	;# 
   262  0993                     	;# 
   263  0994                     	;# 
   264  0995                     	;# 
   265  0996                     	;# 
   266  0997                     	;# 
   267  0A19                     	;# 
   268  0A19                     	;# 
   269  0A1A                     	;# 
   270  0A1A                     	;# 
   271  0A1B                     	;# 
   272  0A1B                     	;# 
   273  0A1B                     	;# 
   274  0A1C                     	;# 
   275  0A1C                     	;# 
   276  0A1D                     	;# 
   277  0A1D                     	;# 
   278  0A1E                     	;# 
   279  0A1E                     	;# 
   280  0A1F                     	;# 
   281  0A1F                     	;# 
   282  0A1F                     	;# 
   283  1E0F                     	;# 
   284  1E10                     	;# 
   285  1E11                     	;# 
   286  1E12                     	;# 
   287  1E13                     	;# 
   288  1E14                     	;# 
   289  1E15                     	;# 
   290  1E16                     	;# 
   291  1E17                     	;# 
   292  1E18                     	;# 
   293  1E19                     	;# 
   294  1E1A                     	;# 
   295  1E1B                     	;# 
   296  1E1C                     	;# 
   297  1E1D                     	;# 
   298  1E1E                     	;# 
   299  1E1F                     	;# 
   300  1E20                     	;# 
   301  1E21                     	;# 
   302  1E22                     	;# 
   303  1E23                     	;# 
   304  1E24                     	;# 
   305  1E25                     	;# 
   306  1E26                     	;# 
   307  1E27                     	;# 
   308  1E28                     	;# 
   309  1E29                     	;# 
   310  1E2A                     	;# 
   311  1E2B                     	;# 
   312  1E2C                     	;# 
   313  1E2D                     	;# 
   314  1E2E                     	;# 
   315  1E2F                     	;# 
   316  1E30                     	;# 
   317  1E31                     	;# 
   318  1E32                     	;# 
   319  1E33                     	;# 
   320  1E34                     	;# 
   321  1E35                     	;# 
   322  1E36                     	;# 
   323  1E37                     	;# 
   324  1E8F                     	;# 
   325  1E90                     	;# 
   326  1E91                     	;# 
   327  1E92                     	;# 
   328  1E93                     	;# 
   329  1E9C                     	;# 
   330  1EA1                     	;# 
   331  1EA2                     	;# 
   332  1EB1                     	;# 
   333  1EBB                     	;# 
   334  1EBC                     	;# 
   335  1EBD                     	;# 
   336  1EBE                     	;# 
   337  1EC3                     	;# 
   338  1EC5                     	;# 
   339  1EC6                     	;# 
   340  1EC7                     	;# 
   341  1EC8                     	;# 
   342  1EC9                     	;# 
   343  1ECA                     	;# 
   344  1ECB                     	;# 
   345  1ECC                     	;# 
   346  1ECD                     	;# 
   347  1ECE                     	;# 
   348  1F10                     	;# 
   349  1F11                     	;# 
   350  1F12                     	;# 
   351  1F13                     	;# 
   352  1F14                     	;# 
   353  1F15                     	;# 
   354  1F16                     	;# 
   355  1F17                     	;# 
   356  1F18                     	;# 
   357  1F19                     	;# 
   358  1F1A                     	;# 
   359  1F1B                     	;# 
   360  1F1C                     	;# 
   361  1F1D                     	;# 
   362  1F1E                     	;# 
   363  1F1F                     	;# 
   364  1F20                     	;# 
   365  1F21                     	;# 
   366  1F22                     	;# 
   367  1F23                     	;# 
   368  1F24                     	;# 
   369  1F25                     	;# 
   370  1F26                     	;# 
   371  1F27                     	;# 
   372  1F38                     	;# 
   373  1F39                     	;# 
   374  1F3A                     	;# 
   375  1F3B                     	;# 
   376  1F3C                     	;# 
   377  1F3D                     	;# 
   378  1F3E                     	;# 
   379  1F3F                     	;# 
   380  1F43                     	;# 
   381  1F44                     	;# 
   382  1F45                     	;# 
   383  1F46                     	;# 
   384  1F47                     	;# 
   385  1F48                     	;# 
   386  1F49                     	;# 
   387  1F4A                     	;# 
   388  1F4E                     	;# 
   389  1F4F                     	;# 
   390  1F50                     	;# 
   391  1F51                     	;# 
   392  1F52                     	;# 
   393  1F53                     	;# 
   394  1F54                     	;# 
   395  1F55                     	;# 
   396  1F65                     	;# 
   397  1F68                     	;# 
   398  1F69                     	;# 
   399  1F6A                     	;# 
   400  1F6B                     	;# 
   401  1FE4                     	;# 
   402  1FE5                     	;# 
   403  1FE6                     	;# 
   404  1FE7                     	;# 
   405  1FE8                     	;# 
   406  1FE8                     	;# 
   407  1FE9                     	;# 
   408  1FEA                     	;# 
   409  1FEA                     	;# 
   410  1FEB                     	;# 
   411  1FED                     	;# 
   412  1FEE                     	;# 
   413  1FEF                     	;# 
   414  0000                     	;# 
   415  0001                     	;# 
   416  0002                     	;# 
   417  0003                     	;# 
   418  0004                     	;# 
   419  0005                     	;# 
   420  0006                     	;# 
   421  0007                     	;# 
   422  0008                     	;# 
   423  0009                     	;# 
   424  000A                     	;# 
   425  000B                     	;# 
   426  000C                     	;# 
   427  000D                     	;# 
   428  000E                     	;# 
   429  0010                     	;# 
   430  0012                     	;# 
   431  0013                     	;# 
   432  0014                     	;# 
   433  0018                     	;# 
   434  0019                     	;# 
   435  001A                     	;# 
   436  009B                     	;# 
   437  009B                     	;# 
   438  009C                     	;# 
   439  009D                     	;# 
   440  009E                     	;# 
   441  009F                     	;# 
   442  0119                     	;# 
   443  0119                     	;# 
   444  0119                     	;# 
   445  011A                     	;# 
   446  011A                     	;# 
   447  011A                     	;# 
   448  011B                     	;# 
   449  011B                     	;# 
   450  011B                     	;# 
   451  011B                     	;# 
   452  011B                     	;# 
   453  011C                     	;# 
   454  011C                     	;# 
   455  011C                     	;# 
   456  011D                     	;# 
   457  011D                     	;# 
   458  011D                     	;# 
   459  011E                     	;# 
   460  011E                     	;# 
   461  011E                     	;# 
   462  011F                     	;# 
   463  011F                     	;# 
   464  011F                     	;# 
   465  011F                     	;# 
   466  011F                     	;# 
   467  018C                     	;# 
   468  018D                     	;# 
   469  018E                     	;# 
   470  018F                     	;# 
   471  0190                     	;# 
   472  0191                     	;# 
   473  0192                     	;# 
   474  0196                     	;# 
   475  0197                     	;# 
   476  0198                     	;# 
   477  0199                     	;# 
   478  019A                     	;# 
   479  019B                     	;# 
   480  019C                     	;# 
   481  020C                     	;# 
   482  020C                     	;# 
   483  020D                     	;# 
   484  020E                     	;# 
   485  020F                     	;# 
   486  020F                     	;# 
   487  0210                     	;# 
   488  0210                     	;# 
   489  0211                     	;# 
   490  0211                     	;# 
   491  028C                     	;# 
   492  028C                     	;# 
   493  028D                     	;# 
   494  028D                     	;# 
   495  028E                     	;# 
   496  028F                     	;# 
   497  0290                     	;# 
   498  0291                     	;# 
   499  030C                     	;# 
   500  030C                     	;# 
   501  030D                     	;# 
   502  030E                     	;# 
   503  030F                     	;# 
   504  0310                     	;# 
   505  0310                     	;# 
   506  0311                     	;# 
   507  0312                     	;# 
   508  0313                     	;# 
   509  0314                     	;# 
   510  0315                     	;# 
   511  0316                     	;# 
   512  0318                     	;# 
   513  0319                     	;# 
   514  031A                     	;# 
   515  031C                     	;# 
   516  031D                     	;# 
   517  031E                     	;# 
   518  038C                     	;# 
   519  038D                     	;# 
   520  038E                     	;# 
   521  058C                     	;# 
   522  058C                     	;# 
   523  058D                     	;# 
   524  058E                     	;# 
   525  058F                     	;# 
   526  058F                     	;# 
   527  0590                     	;# 
   528  0591                     	;# 
   529  0592                     	;# 
   530  0593                     	;# 
   531  059C                     	;# 
   532  059C                     	;# 
   533  059D                     	;# 
   534  059D                     	;# 
   535  059E                     	;# 
   536  059F                     	;# 
   537  060C                     	;# 
   538  060D                     	;# 
   539  060E                     	;# 
   540  060F                     	;# 
   541  0610                     	;# 
   542  0611                     	;# 
   543  0612                     	;# 
   544  0613                     	;# 
   545  0614                     	;# 
   546  070C                     	;# 
   547  070D                     	;# 
   548  070E                     	;# 
   549  070F                     	;# 
   550  0710                     	;# 
   551  0711                     	;# 
   552  0712                     	;# 
   553  0713                     	;# 
   554  0716                     	;# 
   555  0717                     	;# 
   556  0718                     	;# 
   557  0719                     	;# 
   558  071A                     	;# 
   559  071B                     	;# 
   560  071C                     	;# 
   561  071D                     	;# 
   562  0796                     	;# 
   563  0797                     	;# 
   564  0798                     	;# 
   565  0799                     	;# 
   566  079A                     	;# 
   567  079B                     	;# 
   568  080C                     	;# 
   569  080D                     	;# 
   570  080E                     	;# 
   571  080F                     	;# 
   572  0810                     	;# 
   573  0811                     	;# 
   574  0812                     	;# 
   575  0813                     	;# 
   576  0814                     	;# 
   577  081A                     	;# 
   578  081A                     	;# 
   579  081B                     	;# 
   580  081C                     	;# 
   581  081C                     	;# 
   582  081D                     	;# 
   583  081E                     	;# 
   584  081F                     	;# 
   585  088C                     	;# 
   586  088D                     	;# 
   587  088E                     	;# 
   588  088F                     	;# 
   589  0890                     	;# 
   590  0891                     	;# 
   591  0892                     	;# 
   592  0893                     	;# 
   593  0895                     	;# 
   594  0896                     	;# 
   595  090C                     	;# 
   596  090E                     	;# 
   597  090F                     	;# 
   598  091F                     	;# 
   599  098F                     	;# 
   600  098F                     	;# 
   601  0990                     	;# 
   602  0991                     	;# 
   603  0992                     	;# 
   604  0993                     	;# 
   605  0994                     	;# 
   606  0995                     	;# 
   607  0996                     	;# 
   608  0997                     	;# 
   609  0A19                     	;# 
   610  0A19                     	;# 
   611  0A1A                     	;# 
   612  0A1A                     	;# 
   613  0A1B                     	;# 
   614  0A1B                     	;# 
   615  0A1B                     	;# 
   616  0A1C                     	;# 
   617  0A1C                     	;# 
   618  0A1D                     	;# 
   619  0A1D                     	;# 
   620  0A1E                     	;# 
   621  0A1E                     	;# 
   622  0A1F                     	;# 
   623  0A1F                     	;# 
   624  0A1F                     	;# 
   625  1E0F                     	;# 
   626  1E10                     	;# 
   627  1E11                     	;# 
   628  1E12                     	;# 
   629  1E13                     	;# 
   630  1E14                     	;# 
   631  1E15                     	;# 
   632  1E16                     	;# 
   633  1E17                     	;# 
   634  1E18                     	;# 
   635  1E19                     	;# 
   636  1E1A                     	;# 
   637  1E1B                     	;# 
   638  1E1C                     	;# 
   639  1E1D                     	;# 
   640  1E1E                     	;# 
   641  1E1F                     	;# 
   642  1E20                     	;# 
   643  1E21                     	;# 
   644  1E22                     	;# 
   645  1E23                     	;# 
   646  1E24                     	;# 
   647  1E25                     	;# 
   648  1E26                     	;# 
   649  1E27                     	;# 
   650  1E28                     	;# 
   651  1E29                     	;# 
   652  1E2A                     	;# 
   653  1E2B                     	;# 
   654  1E2C                     	;# 
   655  1E2D                     	;# 
   656  1E2E                     	;# 
   657  1E2F                     	;# 
   658  1E30                     	;# 
   659  1E31                     	;# 
   660  1E32                     	;# 
   661  1E33                     	;# 
   662  1E34                     	;# 
   663  1E35                     	;# 
   664  1E36                     	;# 
   665  1E37                     	;# 
   666  1E8F                     	;# 
   667  1E90                     	;# 
   668  1E91                     	;# 
   669  1E92                     	;# 
   670  1E93                     	;# 
   671  1E9C                     	;# 
   672  1EA1                     	;# 
   673  1EA2                     	;# 
   674  1EB1                     	;# 
   675  1EBB                     	;# 
   676  1EBC                     	;# 
   677  1EBD                     	;# 
   678  1EBE                     	;# 
   679  1EC3                     	;# 
   680  1EC5                     	;# 
   681  1EC6                     	;# 
   682  1EC7                     	;# 
   683  1EC8                     	;# 
   684  1EC9                     	;# 
   685  1ECA                     	;# 
   686  1ECB                     	;# 
   687  1ECC                     	;# 
   688  1ECD                     	;# 
   689  1ECE                     	;# 
   690  1F10                     	;# 
   691  1F11                     	;# 
   692  1F12                     	;# 
   693  1F13                     	;# 
   694  1F14                     	;# 
   695  1F15                     	;# 
   696  1F16                     	;# 
   697  1F17                     	;# 
   698  1F18                     	;# 
   699  1F19                     	;# 
   700  1F1A                     	;# 
   701  1F1B                     	;# 
   702  1F1C                     	;# 
   703  1F1D                     	;# 
   704  1F1E                     	;# 
   705  1F1F                     	;# 
   706  1F20                     	;# 
   707  1F21                     	;# 
   708  1F22                     	;# 
   709  1F23                     	;# 
   710  1F24                     	;# 
   711  1F25                     	;# 
   712  1F26                     	;# 
   713  1F27                     	;# 
   714  1F38                     	;# 
   715  1F39                     	;# 
   716  1F3A                     	;# 
   717  1F3B                     	;# 
   718  1F3C                     	;# 
   719  1F3D                     	;# 
   720  1F3E                     	;# 
   721  1F3F                     	;# 
   722  1F43                     	;# 
   723  1F44                     	;# 
   724  1F45                     	;# 
   725  1F46                     	;# 
   726  1F47                     	;# 
   727  1F48                     	;# 
   728  1F49                     	;# 
   729  1F4A                     	;# 
   730  1F4E                     	;# 
   731  1F4F                     	;# 
   732  1F50                     	;# 
   733  1F51                     	;# 
   734  1F52                     	;# 
   735  1F53                     	;# 
   736  1F54                     	;# 
   737  1F55                     	;# 
   738  1F65                     	;# 
   739  1F68                     	;# 
   740  1F69                     	;# 
   741  1F6A                     	;# 
   742  1F6B                     	;# 
   743  1FE4                     	;# 
   744  1FE5                     	;# 
   745  1FE6                     	;# 
   746  1FE7                     	;# 
   747  1FE8                     	;# 
   748  1FE8                     	;# 
   749  1FE9                     	;# 
   750  1FEA                     	;# 
   751  1FEA                     	;# 
   752  1FEB                     	;# 
   753  1FED                     	;# 
   754  1FEE                     	;# 
   755  1FEF                     	;# 
   756  0000                     	;# 
   757  0001                     	;# 
   758  0002                     	;# 
   759  0003                     	;# 
   760  0004                     	;# 
   761  0005                     	;# 
   762  0006                     	;# 
   763  0007                     	;# 
   764  0008                     	;# 
   765  0009                     	;# 
   766  000A                     	;# 
   767  000B                     	;# 
   768  000C                     	;# 
   769  000D                     	;# 
   770  000E                     	;# 
   771  0010                     	;# 
   772  0012                     	;# 
   773  0013                     	;# 
   774  0014                     	;# 
   775  0018                     	;# 
   776  0019                     	;# 
   777  001A                     	;# 
   778  009B                     	;# 
   779  009B                     	;# 
   780  009C                     	;# 
   781  009D                     	;# 
   782  009E                     	;# 
   783  009F                     	;# 
   784  0119                     	;# 
   785  0119                     	;# 
   786  0119                     	;# 
   787  011A                     	;# 
   788  011A                     	;# 
   789  011A                     	;# 
   790  011B                     	;# 
   791  011B                     	;# 
   792  011B                     	;# 
   793  011B                     	;# 
   794  011B                     	;# 
   795  011C                     	;# 
   796  011C                     	;# 
   797  011C                     	;# 
   798  011D                     	;# 
   799  011D                     	;# 
   800  011D                     	;# 
   801  011E                     	;# 
   802  011E                     	;# 
   803  011E                     	;# 
   804  011F                     	;# 
   805  011F                     	;# 
   806  011F                     	;# 
   807  011F                     	;# 
   808  011F                     	;# 
   809  018C                     	;# 
   810  018D                     	;# 
   811  018E                     	;# 
   812  018F                     	;# 
   813  0190                     	;# 
   814  0191                     	;# 
   815  0192                     	;# 
   816  0196                     	;# 
   817  0197                     	;# 
   818  0198                     	;# 
   819  0199                     	;# 
   820  019A                     	;# 
   821  019B                     	;# 
   822  019C                     	;# 
   823  020C                     	;# 
   824  020C                     	;# 
   825  020D                     	;# 
   826  020E                     	;# 
   827  020F                     	;# 
   828  020F                     	;# 
   829  0210                     	;# 
   830  0210                     	;# 
   831  0211                     	;# 
   832  0211                     	;# 
   833  028C                     	;# 
   834  028C                     	;# 
   835  028D                     	;# 
   836  028D                     	;# 
   837  028E                     	;# 
   838  028F                     	;# 
   839  0290                     	;# 
   840  0291                     	;# 
   841  030C                     	;# 
   842  030C                     	;# 
   843  030D                     	;# 
   844  030E                     	;# 
   845  030F                     	;# 
   846  0310                     	;# 
   847  0310                     	;# 
   848  0311                     	;# 
   849  0312                     	;# 
   850  0313                     	;# 
   851  0314                     	;# 
   852  0315                     	;# 
   853  0316                     	;# 
   854  0318                     	;# 
   855  0319                     	;# 
   856  031A                     	;# 
   857  031C                     	;# 
   858  031D                     	;# 
   859  031E                     	;# 
   860  038C                     	;# 
   861  038D                     	;# 
   862  038E                     	;# 
   863  058C                     	;# 
   864  058C                     	;# 
   865  058D                     	;# 
   866  058E                     	;# 
   867  058F                     	;# 
   868  058F                     	;# 
   869  0590                     	;# 
   870  0591                     	;# 
   871  0592                     	;# 
   872  0593                     	;# 
   873  059C                     	;# 
   874  059C                     	;# 
   875  059D                     	;# 
   876  059D                     	;# 
   877  059E                     	;# 
   878  059F                     	;# 
   879  060C                     	;# 
   880  060D                     	;# 
   881  060E                     	;# 
   882  060F                     	;# 
   883  0610                     	;# 
   884  0611                     	;# 
   885  0612                     	;# 
   886  0613                     	;# 
   887  0614                     	;# 
   888  070C                     	;# 
   889  070D                     	;# 
   890  070E                     	;# 
   891  070F                     	;# 
   892  0710                     	;# 
   893  0711                     	;# 
   894  0712                     	;# 
   895  0713                     	;# 
   896  0716                     	;# 
   897  0717                     	;# 
   898  0718                     	;# 
   899  0719                     	;# 
   900  071A                     	;# 
   901  071B                     	;# 
   902  071C                     	;# 
   903  071D                     	;# 
   904  0796                     	;# 
   905  0797                     	;# 
   906  0798                     	;# 
   907  0799                     	;# 
   908  079A                     	;# 
   909  079B                     	;# 
   910  080C                     	;# 
   911  080D                     	;# 
   912  080E                     	;# 
   913  080F                     	;# 
   914  0810                     	;# 
   915  0811                     	;# 
   916  0812                     	;# 
   917  0813                     	;# 
   918  0814                     	;# 
   919  081A                     	;# 
   920  081A                     	;# 
   921  081B                     	;# 
   922  081C                     	;# 
   923  081C                     	;# 
   924  081D                     	;# 
   925  081E                     	;# 
   926  081F                     	;# 
   927  088C                     	;# 
   928  088D                     	;# 
   929  088E                     	;# 
   930  088F                     	;# 
   931  0890                     	;# 
   932  0891                     	;# 
   933  0892                     	;# 
   934  0893                     	;# 
   935  0895                     	;# 
   936  0896                     	;# 
   937  090C                     	;# 
   938  090E                     	;# 
   939  090F                     	;# 
   940  091F                     	;# 
   941  098F                     	;# 
   942  098F                     	;# 
   943  0990                     	;# 
   944  0991                     	;# 
   945  0992                     	;# 
   946  0993                     	;# 
   947  0994                     	;# 
   948  0995                     	;# 
   949  0996                     	;# 
   950  0997                     	;# 
   951  0A19                     	;# 
   952  0A19                     	;# 
   953  0A1A                     	;# 
   954  0A1A                     	;# 
   955  0A1B                     	;# 
   956  0A1B                     	;# 
   957  0A1B                     	;# 
   958  0A1C                     	;# 
   959  0A1C                     	;# 
   960  0A1D                     	;# 
   961  0A1D                     	;# 
   962  0A1E                     	;# 
   963  0A1E                     	;# 
   964  0A1F                     	;# 
   965  0A1F                     	;# 
   966  0A1F                     	;# 
   967  1E0F                     	;# 
   968  1E10                     	;# 
   969  1E11                     	;# 
   970  1E12                     	;# 
   971  1E13                     	;# 
   972  1E14                     	;# 
   973  1E15                     	;# 
   974  1E16                     	;# 
   975  1E17                     	;# 
   976  1E18                     	;# 
   977  1E19                     	;# 
   978  1E1A                     	;# 
   979  1E1B                     	;# 
   980  1E1C                     	;# 
   981  1E1D                     	;# 
   982  1E1E                     	;# 
   983  1E1F                     	;# 
   984  1E20                     	;# 
   985  1E21                     	;# 
   986  1E22                     	;# 
   987  1E23                     	;# 
   988  1E24                     	;# 
   989  1E25                     	;# 
   990  1E26                     	;# 
   991  1E27                     	;# 
   992  1E28                     	;# 
   993  1E29                     	;# 
   994  1E2A                     	;# 
   995  1E2B                     	;# 
   996  1E2C                     	;# 
   997  1E2D                     	;# 
   998  1E2E                     	;# 
   999  1E2F                     	;# 
  1000  1E30                     	;# 
  1001  1E31                     	;# 
  1002  1E32                     	;# 
  1003  1E33                     	;# 
  1004  1E34                     	;# 
  1005  1E35                     	;# 
  1006  1E36                     	;# 
  1007  1E37                     	;# 
  1008  1E8F                     	;# 
  1009  1E90                     	;# 
  1010  1E91                     	;# 
  1011  1E92                     	;# 
  1012  1E93                     	;# 
  1013  1E9C                     	;# 
  1014  1EA1                     	;# 
  1015  1EA2                     	;# 
  1016  1EB1                     	;# 
  1017  1EBB                     	;# 
  1018  1EBC                     	;# 
  1019  1EBD                     	;# 
  1020  1EBE                     	;# 
  1021  1EC3                     	;# 
  1022  1EC5                     	;# 
  1023  1EC6                     	;# 
  1024  1EC7                     	;# 
  1025  1EC8                     	;# 
  1026  1EC9                     	;# 
  1027  1ECA                     	;# 
  1028  1ECB                     	;# 
  1029  1ECC                     	;# 
  1030  1ECD                     	;# 
  1031  1ECE                     	;# 
  1032  1F10                     	;# 
  1033  1F11                     	;# 
  1034  1F12                     	;# 
  1035  1F13                     	;# 
  1036  1F14                     	;# 
  1037  1F15                     	;# 
  1038  1F16                     	;# 
  1039  1F17                     	;# 
  1040  1F18                     	;# 
  1041  1F19                     	;# 
  1042  1F1A                     	;# 
  1043  1F1B                     	;# 
  1044  1F1C                     	;# 
  1045  1F1D                     	;# 
  1046  1F1E                     	;# 
  1047  1F1F                     	;# 
  1048  1F20                     	;# 
  1049  1F21                     	;# 
  1050  1F22                     	;# 
  1051  1F23                     	;# 
  1052  1F24                     	;# 
  1053  1F25                     	;# 
  1054  1F26                     	;# 
  1055  1F27                     	;# 
  1056  1F38                     	;# 
  1057  1F39                     	;# 
  1058  1F3A                     	;# 
  1059  1F3B                     	;# 
  1060  1F3C                     	;# 
  1061  1F3D                     	;# 
  1062  1F3E                     	;# 
  1063  1F3F                     	;# 
  1064  1F43                     	;# 
  1065  1F44                     	;# 
  1066  1F45                     	;# 
  1067  1F46                     	;# 
  1068  1F47                     	;# 
  1069  1F48                     	;# 
  1070  1F49                     	;# 
  1071  1F4A                     	;# 
  1072  1F4E                     	;# 
  1073  1F4F                     	;# 
  1074  1F50                     	;# 
  1075  1F51                     	;# 
  1076  1F52                     	;# 
  1077  1F53                     	;# 
  1078  1F54                     	;# 
  1079  1F55                     	;# 
  1080  1F65                     	;# 
  1081  1F68                     	;# 
  1082  1F69                     	;# 
  1083  1F6A                     	;# 
  1084  1F6B                     	;# 
  1085  1FE4                     	;# 
  1086  1FE5                     	;# 
  1087  1FE6                     	;# 
  1088  1FE7                     	;# 
  1089  1FE8                     	;# 
  1090  1FE8                     	;# 
  1091  1FE9                     	;# 
  1092  1FEA                     	;# 
  1093  1FEA                     	;# 
  1094  1FEB                     	;# 
  1095  1FED                     	;# 
  1096  1FEE                     	;# 
  1097  1FEF                     	;# 
  1098  0000                     	;# 
  1099  0001                     	;# 
  1100  0002                     	;# 
  1101  0003                     	;# 
  1102  0004                     	;# 
  1103  0005                     	;# 
  1104  0006                     	;# 
  1105  0007                     	;# 
  1106  0008                     	;# 
  1107  0009                     	;# 
  1108  000A                     	;# 
  1109  000B                     	;# 
  1110  000C                     	;# 
  1111  000D                     	;# 
  1112  000E                     	;# 
  1113  0010                     	;# 
  1114  0012                     	;# 
  1115  0013                     	;# 
  1116  0014                     	;# 
  1117  0018                     	;# 
  1118  0019                     	;# 
  1119  001A                     	;# 
  1120  009B                     	;# 
  1121  009B                     	;# 
  1122  009C                     	;# 
  1123  009D                     	;# 
  1124  009E                     	;# 
  1125  009F                     	;# 
  1126  0119                     	;# 
  1127  0119                     	;# 
  1128  0119                     	;# 
  1129  011A                     	;# 
  1130  011A                     	;# 
  1131  011A                     	;# 
  1132  011B                     	;# 
  1133  011B                     	;# 
  1134  011B                     	;# 
  1135  011B                     	;# 
  1136  011B                     	;# 
  1137  011C                     	;# 
  1138  011C                     	;# 
  1139  011C                     	;# 
  1140  011D                     	;# 
  1141  011D                     	;# 
  1142  011D                     	;# 
  1143  011E                     	;# 
  1144  011E                     	;# 
  1145  011E                     	;# 
  1146  011F                     	;# 
  1147  011F                     	;# 
  1148  011F                     	;# 
  1149  011F                     	;# 
  1150  011F                     	;# 
  1151  018C                     	;# 
  1152  018D                     	;# 
  1153  018E                     	;# 
  1154  018F                     	;# 
  1155  0190                     	;# 
  1156  0191                     	;# 
  1157  0192                     	;# 
  1158  0196                     	;# 
  1159  0197                     	;# 
  1160  0198                     	;# 
  1161  0199                     	;# 
  1162  019A                     	;# 
  1163  019B                     	;# 
  1164  019C                     	;# 
  1165  020C                     	;# 
  1166  020C                     	;# 
  1167  020D                     	;# 
  1168  020E                     	;# 
  1169  020F                     	;# 
  1170  020F                     	;# 
  1171  0210                     	;# 
  1172  0210                     	;# 
  1173  0211                     	;# 
  1174  0211                     	;# 
  1175  028C                     	;# 
  1176  028C                     	;# 
  1177  028D                     	;# 
  1178  028D                     	;# 
  1179  028E                     	;# 
  1180  028F                     	;# 
  1181  0290                     	;# 
  1182  0291                     	;# 
  1183  030C                     	;# 
  1184  030C                     	;# 
  1185  030D                     	;# 
  1186  030E                     	;# 
  1187  030F                     	;# 
  1188  0310                     	;# 
  1189  0310                     	;# 
  1190  0311                     	;# 
  1191  0312                     	;# 
  1192  0313                     	;# 
  1193  0314                     	;# 
  1194  0315                     	;# 
  1195  0316                     	;# 
  1196  0318                     	;# 
  1197  0319                     	;# 
  1198  031A                     	;# 
  1199  031C                     	;# 
  1200  031D                     	;# 
  1201  031E                     	;# 
  1202  038C                     	;# 
  1203  038D                     	;# 
  1204  038E                     	;# 
  1205  058C                     	;# 
  1206  058C                     	;# 
  1207  058D                     	;# 
  1208  058E                     	;# 
  1209  058F                     	;# 
  1210  058F                     	;# 
  1211  0590                     	;# 
  1212  0591                     	;# 
  1213  0592                     	;# 
  1214  0593                     	;# 
  1215  059C                     	;# 
  1216  059C                     	;# 
  1217  059D                     	;# 
  1218  059D                     	;# 
  1219  059E                     	;# 
  1220  059F                     	;# 
  1221  060C                     	;# 
  1222  060D                     	;# 
  1223  060E                     	;# 
  1224  060F                     	;# 
  1225  0610                     	;# 
  1226  0611                     	;# 
  1227  0612                     	;# 
  1228  0613                     	;# 
  1229  0614                     	;# 
  1230  070C                     	;# 
  1231  070D                     	;# 
  1232  070E                     	;# 
  1233  070F                     	;# 
  1234  0710                     	;# 
  1235  0711                     	;# 
  1236  0712                     	;# 
  1237  0713                     	;# 
  1238  0716                     	;# 
  1239  0717                     	;# 
  1240  0718                     	;# 
  1241  0719                     	;# 
  1242  071A                     	;# 
  1243  071B                     	;# 
  1244  071C                     	;# 
  1245  071D                     	;# 
  1246  0796                     	;# 
  1247  0797                     	;# 
  1248  0798                     	;# 
  1249  0799                     	;# 
  1250  079A                     	;# 
  1251  079B                     	;# 
  1252  080C                     	;# 
  1253  080D                     	;# 
  1254  080E                     	;# 
  1255  080F                     	;# 
  1256  0810                     	;# 
  1257  0811                     	;# 
  1258  0812                     	;# 
  1259  0813                     	;# 
  1260  0814                     	;# 
  1261  081A                     	;# 
  1262  081A                     	;# 
  1263  081B                     	;# 
  1264  081C                     	;# 
  1265  081C                     	;# 
  1266  081D                     	;# 
  1267  081E                     	;# 
  1268  081F                     	;# 
  1269  088C                     	;# 
  1270  088D                     	;# 
  1271  088E                     	;# 
  1272  088F                     	;# 
  1273  0890                     	;# 
  1274  0891                     	;# 
  1275  0892                     	;# 
  1276  0893                     	;# 
  1277  0895                     	;# 
  1278  0896                     	;# 
  1279  090C                     	;# 
  1280  090E                     	;# 
  1281  090F                     	;# 
  1282  091F                     	;# 
  1283  098F                     	;# 
  1284  098F                     	;# 
  1285  0990                     	;# 
  1286  0991                     	;# 
  1287  0992                     	;# 
  1288  0993                     	;# 
  1289  0994                     	;# 
  1290  0995                     	;# 
  1291  0996                     	;# 
  1292  0997                     	;# 
  1293  0A19                     	;# 
  1294  0A19                     	;# 
  1295  0A1A                     	;# 
  1296  0A1A                     	;# 
  1297  0A1B                     	;# 
  1298  0A1B                     	;# 
  1299  0A1B                     	;# 
  1300  0A1C                     	;# 
  1301  0A1C                     	;# 
  1302  0A1D                     	;# 
  1303  0A1D                     	;# 
  1304  0A1E                     	;# 
  1305  0A1E                     	;# 
  1306  0A1F                     	;# 
  1307  0A1F                     	;# 
  1308  0A1F                     	;# 
  1309  1E0F                     	;# 
  1310  1E10                     	;# 
  1311  1E11                     	;# 
  1312  1E12                     	;# 
  1313  1E13                     	;# 
  1314  1E14                     	;# 
  1315  1E15                     	;# 
  1316  1E16                     	;# 
  1317  1E17                     	;# 
  1318  1E18                     	;# 
  1319  1E19                     	;# 
  1320  1E1A                     	;# 
  1321  1E1B                     	;# 
  1322  1E1C                     	;# 
  1323  1E1D                     	;# 
  1324  1E1E                     	;# 
  1325  1E1F                     	;# 
  1326  1E20                     	;# 
  1327  1E21                     	;# 
  1328  1E22                     	;# 
  1329  1E23                     	;# 
  1330  1E24                     	;# 
  1331  1E25                     	;# 
  1332  1E26                     	;# 
  1333  1E27                     	;# 
  1334  1E28                     	;# 
  1335  1E29                     	;# 
  1336  1E2A                     	;# 
  1337  1E2B                     	;# 
  1338  1E2C                     	;# 
  1339  1E2D                     	;# 
  1340  1E2E                     	;# 
  1341  1E2F                     	;# 
  1342  1E30                     	;# 
  1343  1E31                     	;# 
  1344  1E32                     	;# 
  1345  1E33                     	;# 
  1346  1E34                     	;# 
  1347  1E35                     	;# 
  1348  1E36                     	;# 
  1349  1E37                     	;# 
  1350  1E8F                     	;# 
  1351  1E90                     	;# 
  1352  1E91                     	;# 
  1353  1E92                     	;# 
  1354  1E93                     	;# 
  1355  1E9C                     	;# 
  1356  1EA1                     	;# 
  1357  1EA2                     	;# 
  1358  1EB1                     	;# 
  1359  1EBB                     	;# 
  1360  1EBC                     	;# 
  1361  1EBD                     	;# 
  1362  1EBE                     	;# 
  1363  1EC3                     	;# 
  1364  1EC5                     	;# 
  1365  1EC6                     	;# 
  1366  1EC7                     	;# 
  1367  1EC8                     	;# 
  1368  1EC9                     	;# 
  1369  1ECA                     	;# 
  1370  1ECB                     	;# 
  1371  1ECC                     	;# 
  1372  1ECD                     	;# 
  1373  1ECE                     	;# 
  1374  1F10                     	;# 
  1375  1F11                     	;# 
  1376  1F12                     	;# 
  1377  1F13                     	;# 
  1378  1F14                     	;# 
  1379  1F15                     	;# 
  1380  1F16                     	;# 
  1381  1F17                     	;# 
  1382  1F18                     	;# 
  1383  1F19                     	;# 
  1384  1F1A                     	;# 
  1385  1F1B                     	;# 
  1386  1F1C                     	;# 
  1387  1F1D                     	;# 
  1388  1F1E                     	;# 
  1389  1F1F                     	;# 
  1390  1F20                     	;# 
  1391  1F21                     	;# 
  1392  1F22                     	;# 
  1393  1F23                     	;# 
  1394  1F24                     	;# 
  1395  1F25                     	;# 
  1396  1F26                     	;# 
  1397  1F27                     	;# 
  1398  1F38                     	;# 
  1399  1F39                     	;# 
  1400  1F3A                     	;# 
  1401  1F3B                     	;# 
  1402  1F3C                     	;# 
  1403  1F3D                     	;# 
  1404  1F3E                     	;# 
  1405  1F3F                     	;# 
  1406  1F43                     	;# 
  1407  1F44                     	;# 
  1408  1F45                     	;# 
  1409  1F46                     	;# 
  1410  1F47                     	;# 
  1411  1F48                     	;# 
  1412  1F49                     	;# 
  1413  1F4A                     	;# 
  1414  1F4E                     	;# 
  1415  1F4F                     	;# 
  1416  1F50                     	;# 
  1417  1F51                     	;# 
  1418  1F52                     	;# 
  1419  1F53                     	;# 
  1420  1F54                     	;# 
  1421  1F55                     	;# 
  1422  1F65                     	;# 
  1423  1F68                     	;# 
  1424  1F69                     	;# 
  1425  1F6A                     	;# 
  1426  1F6B                     	;# 
  1427  1FE4                     	;# 
  1428  1FE5                     	;# 
  1429  1FE6                     	;# 
  1430  1FE7                     	;# 
  1431  1FE8                     	;# 
  1432  1FE8                     	;# 
  1433  1FE9                     	;# 
  1434  1FEA                     	;# 
  1435  1FEA                     	;# 
  1436  1FEB                     	;# 
  1437  1FED                     	;# 
  1438  1FEE                     	;# 
  1439  1FEF                     	;# 
  1440  0000                     	;# 
  1441  0001                     	;# 
  1442  0002                     	;# 
  1443  0003                     	;# 
  1444  0004                     	;# 
  1445  0005                     	;# 
  1446  0006                     	;# 
  1447  0007                     	;# 
  1448  0008                     	;# 
  1449  0009                     	;# 
  1450  000A                     	;# 
  1451  000B                     	;# 
  1452  000C                     	;# 
  1453  000D                     	;# 
  1454  000E                     	;# 
  1455  0010                     	;# 
  1456  0012                     	;# 
  1457  0013                     	;# 
  1458  0014                     	;# 
  1459  0018                     	;# 
  1460  0019                     	;# 
  1461  001A                     	;# 
  1462  009B                     	;# 
  1463  009B                     	;# 
  1464  009C                     	;# 
  1465  009D                     	;# 
  1466  009E                     	;# 
  1467  009F                     	;# 
  1468  0119                     	;# 
  1469  0119                     	;# 
  1470  0119                     	;# 
  1471  011A                     	;# 
  1472  011A                     	;# 
  1473  011A                     	;# 
  1474  011B                     	;# 
  1475  011B                     	;# 
  1476  011B                     	;# 
  1477  011B                     	;# 
  1478  011B                     	;# 
  1479  011C                     	;# 
  1480  011C                     	;# 
  1481  011C                     	;# 
  1482  011D                     	;# 
  1483  011D                     	;# 
  1484  011D                     	;# 
  1485  011E                     	;# 
  1486  011E                     	;# 
  1487  011E                     	;# 
  1488  011F                     	;# 
  1489  011F                     	;# 
  1490  011F                     	;# 
  1491  011F                     	;# 
  1492  011F                     	;# 
  1493  018C                     	;# 
  1494  018D                     	;# 
  1495  018E                     	;# 
  1496  018F                     	;# 
  1497  0190                     	;# 
  1498  0191                     	;# 
  1499  0192                     	;# 
  1500  0196                     	;# 
  1501  0197                     	;# 
  1502  0198                     	;# 
  1503  0199                     	;# 
  1504  019A                     	;# 
  1505  019B                     	;# 
  1506  019C                     	;# 
  1507  020C                     	;# 
  1508  020C                     	;# 
  1509  020D                     	;# 
  1510  020E                     	;# 
  1511  020F                     	;# 
  1512  020F                     	;# 
  1513  0210                     	;# 
  1514  0210                     	;# 
  1515  0211                     	;# 
  1516  0211                     	;# 
  1517  028C                     	;# 
  1518  028C                     	;# 
  1519  028D                     	;# 
  1520  028D                     	;# 
  1521  028E                     	;# 
  1522  028F                     	;# 
  1523  0290                     	;# 
  1524  0291                     	;# 
  1525  030C                     	;# 
  1526  030C                     	;# 
  1527  030D                     	;# 
  1528  030E                     	;# 
  1529  030F                     	;# 
  1530  0310                     	;# 
  1531  0310                     	;# 
  1532  0311                     	;# 
  1533  0312                     	;# 
  1534  0313                     	;# 
  1535  0314                     	;# 
  1536  0315                     	;# 
  1537  0316                     	;# 
  1538  0318                     	;# 
  1539  0319                     	;# 
  1540  031A                     	;# 
  1541  031C                     	;# 
  1542  031D                     	;# 
  1543  031E                     	;# 
  1544  038C                     	;# 
  1545  038D                     	;# 
  1546  038E                     	;# 
  1547  058C                     	;# 
  1548  058C                     	;# 
  1549  058D                     	;# 
  1550  058E                     	;# 
  1551  058F                     	;# 
  1552  058F                     	;# 
  1553  0590                     	;# 
  1554  0591                     	;# 
  1555  0592                     	;# 
  1556  0593                     	;# 
  1557  059C                     	;# 
  1558  059C                     	;# 
  1559  059D                     	;# 
  1560  059D                     	;# 
  1561  059E                     	;# 
  1562  059F                     	;# 
  1563  060C                     	;# 
  1564  060D                     	;# 
  1565  060E                     	;# 
  1566  060F                     	;# 
  1567  0610                     	;# 
  1568  0611                     	;# 
  1569  0612                     	;# 
  1570  0613                     	;# 
  1571  0614                     	;# 
  1572  070C                     	;# 
  1573  070D                     	;# 
  1574  070E                     	;# 
  1575  070F                     	;# 
  1576  0710                     	;# 
  1577  0711                     	;# 
  1578  0712                     	;# 
  1579  0713                     	;# 
  1580  0716                     	;# 
  1581  0717                     	;# 
  1582  0718                     	;# 
  1583  0719                     	;# 
  1584  071A                     	;# 
  1585  071B                     	;# 
  1586  071C                     	;# 
  1587  071D                     	;# 
  1588  0796                     	;# 
  1589  0797                     	;# 
  1590  0798                     	;# 
  1591  0799                     	;# 
  1592  079A                     	;# 
  1593  079B                     	;# 
  1594  080C                     	;# 
  1595  080D                     	;# 
  1596  080E                     	;# 
  1597  080F                     	;# 
  1598  0810                     	;# 
  1599  0811                     	;# 
  1600  0812                     	;# 
  1601  0813                     	;# 
  1602  0814                     	;# 
  1603  081A                     	;# 
  1604  081A                     	;# 
  1605  081B                     	;# 
  1606  081C                     	;# 
  1607  081C                     	;# 
  1608  081D                     	;# 
  1609  081E                     	;# 
  1610  081F                     	;# 
  1611  088C                     	;# 
  1612  088D                     	;# 
  1613  088E                     	;# 
  1614  088F                     	;# 
  1615  0890                     	;# 
  1616  0891                     	;# 
  1617  0892                     	;# 
  1618  0893                     	;# 
  1619  0895                     	;# 
  1620  0896                     	;# 
  1621  090C                     	;# 
  1622  090E                     	;# 
  1623  090F                     	;# 
  1624  091F                     	;# 
  1625  098F                     	;# 
  1626  098F                     	;# 
  1627  0990                     	;# 
  1628  0991                     	;# 
  1629  0992                     	;# 
  1630  0993                     	;# 
  1631  0994                     	;# 
  1632  0995                     	;# 
  1633  0996                     	;# 
  1634  0997                     	;# 
  1635  0A19                     	;# 
  1636  0A19                     	;# 
  1637  0A1A                     	;# 
  1638  0A1A                     	;# 
  1639  0A1B                     	;# 
  1640  0A1B                     	;# 
  1641  0A1B                     	;# 
  1642  0A1C                     	;# 
  1643  0A1C                     	;# 
  1644  0A1D                     	;# 
  1645  0A1D                     	;# 
  1646  0A1E                     	;# 
  1647  0A1E                     	;# 
  1648  0A1F                     	;# 
  1649  0A1F                     	;# 
  1650  0A1F                     	;# 
  1651  1E0F                     	;# 
  1652  1E10                     	;# 
  1653  1E11                     	;# 
  1654  1E12                     	;# 
  1655  1E13                     	;# 
  1656  1E14                     	;# 
  1657  1E15                     	;# 
  1658  1E16                     	;# 
  1659  1E17                     	;# 
  1660  1E18                     	;# 
  1661  1E19                     	;# 
  1662  1E1A                     	;# 
  1663  1E1B                     	;# 
  1664  1E1C                     	;# 
  1665  1E1D                     	;# 
  1666  1E1E                     	;# 
  1667  1E1F                     	;# 
  1668  1E20                     	;# 
  1669  1E21                     	;# 
  1670  1E22                     	;# 
  1671  1E23                     	;# 
  1672  1E24                     	;# 
  1673  1E25                     	;# 
  1674  1E26                     	;# 
  1675  1E27                     	;# 
  1676  1E28                     	;# 
  1677  1E29                     	;# 
  1678  1E2A                     	;# 
  1679  1E2B                     	;# 
  1680  1E2C                     	;# 
  1681  1E2D                     	;# 
  1682  1E2E                     	;# 
  1683  1E2F                     	;# 
  1684  1E30                     	;# 
  1685  1E31                     	;# 
  1686  1E32                     	;# 
  1687  1E33                     	;# 
  1688  1E34                     	;# 
  1689  1E35                     	;# 
  1690  1E36                     	;# 
  1691  1E37                     	;# 
  1692  1E8F                     	;# 
  1693  1E90                     	;# 
  1694  1E91                     	;# 
  1695  1E92                     	;# 
  1696  1E93                     	;# 
  1697  1E9C                     	;# 
  1698  1EA1                     	;# 
  1699  1EA2                     	;# 
  1700  1EB1                     	;# 
  1701  1EBB                     	;# 
  1702  1EBC                     	;# 
  1703  1EBD                     	;# 
  1704  1EBE                     	;# 
  1705  1EC3                     	;# 
  1706  1EC5                     	;# 
  1707  1EC6                     	;# 
  1708  1EC7                     	;# 
  1709  1EC8                     	;# 
  1710  1EC9                     	;# 
  1711  1ECA                     	;# 
  1712  1ECB                     	;# 
  1713  1ECC                     	;# 
  1714  1ECD                     	;# 
  1715  1ECE                     	;# 
  1716  1F10                     	;# 
  1717  1F11                     	;# 
  1718  1F12                     	;# 
  1719  1F13                     	;# 
  1720  1F14                     	;# 
  1721  1F15                     	;# 
  1722  1F16                     	;# 
  1723  1F17                     	;# 
  1724  1F18                     	;# 
  1725  1F19                     	;# 
  1726  1F1A                     	;# 
  1727  1F1B                     	;# 
  1728  1F1C                     	;# 
  1729  1F1D                     	;# 
  1730  1F1E                     	;# 
  1731  1F1F                     	;# 
  1732  1F20                     	;# 
  1733  1F21                     	;# 
  1734  1F22                     	;# 
  1735  1F23                     	;# 
  1736  1F24                     	;# 
  1737  1F25                     	;# 
  1738  1F26                     	;# 
  1739  1F27                     	;# 
  1740  1F38                     	;# 
  1741  1F39                     	;# 
  1742  1F3A                     	;# 
  1743  1F3B                     	;# 
  1744  1F3C                     	;# 
  1745  1F3D                     	;# 
  1746  1F3E                     	;# 
  1747  1F3F                     	;# 
  1748  1F43                     	;# 
  1749  1F44                     	;# 
  1750  1F45                     	;# 
  1751  1F46                     	;# 
  1752  1F47                     	;# 
  1753  1F48                     	;# 
  1754  1F49                     	;# 
  1755  1F4A                     	;# 
  1756  1F4E                     	;# 
  1757  1F4F                     	;# 
  1758  1F50                     	;# 
  1759  1F51                     	;# 
  1760  1F52                     	;# 
  1761  1F53                     	;# 
  1762  1F54                     	;# 
  1763  1F55                     	;# 
  1764  1F65                     	;# 
  1765  1F68                     	;# 
  1766  1F69                     	;# 
  1767  1F6A                     	;# 
  1768  1F6B                     	;# 
  1769  1FE4                     	;# 
  1770  1FE5                     	;# 
  1771  1FE6                     	;# 
  1772  1FE7                     	;# 
  1773  1FE8                     	;# 
  1774  1FE8                     	;# 
  1775  1FE9                     	;# 
  1776  1FEA                     	;# 
  1777  1FEA                     	;# 
  1778  1FEB                     	;# 
  1779  1FED                     	;# 
  1780  1FEE                     	;# 
  1781  1FEF                     	;# 
  1782  0000                     	;# 
  1783  0001                     	;# 
  1784  0002                     	;# 
  1785  0003                     	;# 
  1786  0004                     	;# 
  1787  0005                     	;# 
  1788  0006                     	;# 
  1789  0007                     	;# 
  1790  0008                     	;# 
  1791  0009                     	;# 
  1792  000A                     	;# 
  1793  000B                     	;# 
  1794  000C                     	;# 
  1795  000D                     	;# 
  1796  000E                     	;# 
  1797  0010                     	;# 
  1798  0012                     	;# 
  1799  0013                     	;# 
  1800  0014                     	;# 
  1801  0018                     	;# 
  1802  0019                     	;# 
  1803  001A                     	;# 
  1804  009B                     	;# 
  1805  009B                     	;# 
  1806  009C                     	;# 
  1807  009D                     	;# 
  1808  009E                     	;# 
  1809  009F                     	;# 
  1810  0119                     	;# 
  1811  0119                     	;# 
  1812  0119                     	;# 
  1813  011A                     	;# 
  1814  011A                     	;# 
  1815  011A                     	;# 
  1816  011B                     	;# 
  1817  011B                     	;# 
  1818  011B                     	;# 
  1819  011B                     	;# 
  1820  011B                     	;# 
  1821  011C                     	;# 
  1822  011C                     	;# 
  1823  011C                     	;# 
  1824  011D                     	;# 
  1825  011D                     	;# 
  1826  011D                     	;# 
  1827  011E                     	;# 
  1828  011E                     	;# 
  1829  011E                     	;# 
  1830  011F                     	;# 
  1831  011F                     	;# 
  1832  011F                     	;# 
  1833  011F                     	;# 
  1834  011F                     	;# 
  1835  018C                     	;# 
  1836  018D                     	;# 
  1837  018E                     	;# 
  1838  018F                     	;# 
  1839  0190                     	;# 
  1840  0191                     	;# 
  1841  0192                     	;# 
  1842  0196                     	;# 
  1843  0197                     	;# 
  1844  0198                     	;# 
  1845  0199                     	;# 
  1846  019A                     	;# 
  1847  019B                     	;# 
  1848  019C                     	;# 
  1849  020C                     	;# 
  1850  020C                     	;# 
  1851  020D                     	;# 
  1852  020E                     	;# 
  1853  020F                     	;# 
  1854  020F                     	;# 
  1855  0210                     	;# 
  1856  0210                     	;# 
  1857  0211                     	;# 
  1858  0211                     	;# 
  1859  028C                     	;# 
  1860  028C                     	;# 
  1861  028D                     	;# 
  1862  028D                     	;# 
  1863  028E                     	;# 
  1864  028F                     	;# 
  1865  0290                     	;# 
  1866  0291                     	;# 
  1867  030C                     	;# 
  1868  030C                     	;# 
  1869  030D                     	;# 
  1870  030E                     	;# 
  1871  030F                     	;# 
  1872  0310                     	;# 
  1873  0310                     	;# 
  1874  0311                     	;# 
  1875  0312                     	;# 
  1876  0313                     	;# 
  1877  0314                     	;# 
  1878  0315                     	;# 
  1879  0316                     	;# 
  1880  0318                     	;# 
  1881  0319                     	;# 
  1882  031A                     	;# 
  1883  031C                     	;# 
  1884  031D                     	;# 
  1885  031E                     	;# 
  1886  038C                     	;# 
  1887  038D                     	;# 
  1888  038E                     	;# 
  1889  058C                     	;# 
  1890  058C                     	;# 
  1891  058D                     	;# 
  1892  058E                     	;# 
  1893  058F                     	;# 
  1894  058F                     	;# 
  1895  0590                     	;# 
  1896  0591                     	;# 
  1897  0592                     	;# 
  1898  0593                     	;# 
  1899  059C                     	;# 
  1900  059C                     	;# 
  1901  059D                     	;# 
  1902  059D                     	;# 
  1903  059E                     	;# 
  1904  059F                     	;# 
  1905  060C                     	;# 
  1906  060D                     	;# 
  1907  060E                     	;# 
  1908  060F                     	;# 
  1909  0610                     	;# 
  1910  0611                     	;# 
  1911  0612                     	;# 
  1912  0613                     	;# 
  1913  0614                     	;# 
  1914  070C                     	;# 
  1915  070D                     	;# 
  1916  070E                     	;# 
  1917  070F                     	;# 
  1918  0710                     	;# 
  1919  0711                     	;# 
  1920  0712                     	;# 
  1921  0713                     	;# 
  1922  0716                     	;# 
  1923  0717                     	;# 
  1924  0718                     	;# 
  1925  0719                     	;# 
  1926  071A                     	;# 
  1927  071B                     	;# 
  1928  071C                     	;# 
  1929  071D                     	;# 
  1930  0796                     	;# 
  1931  0797                     	;# 
  1932  0798                     	;# 
  1933  0799                     	;# 
  1934  079A                     	;# 
  1935  079B                     	;# 
  1936  080C                     	;# 
  1937  080D                     	;# 
  1938  080E                     	;# 
  1939  080F                     	;# 
  1940  0810                     	;# 
  1941  0811                     	;# 
  1942  0812                     	;# 
  1943  0813                     	;# 
  1944  0814                     	;# 
  1945  081A                     	;# 
  1946  081A                     	;# 
  1947  081B                     	;# 
  1948  081C                     	;# 
  1949  081C                     	;# 
  1950  081D                     	;# 
  1951  081E                     	;# 
  1952  081F                     	;# 
  1953  088C                     	;# 
  1954  088D                     	;# 
  1955  088E                     	;# 
  1956  088F                     	;# 
  1957  0890                     	;# 
  1958  0891                     	;# 
  1959  0892                     	;# 
  1960  0893                     	;# 
  1961  0895                     	;# 
  1962  0896                     	;# 
  1963  090C                     	;# 
  1964  090E                     	;# 
  1965  090F                     	;# 
  1966  091F                     	;# 
  1967  098F                     	;# 
  1968  098F                     	;# 
  1969  0990                     	;# 
  1970  0991                     	;# 
  1971  0992                     	;# 
  1972  0993                     	;# 
  1973  0994                     	;# 
  1974  0995                     	;# 
  1975  0996                     	;# 
  1976  0997                     	;# 
  1977  0A19                     	;# 
  1978  0A19                     	;# 
  1979  0A1A                     	;# 
  1980  0A1A                     	;# 
  1981  0A1B                     	;# 
  1982  0A1B                     	;# 
  1983  0A1B                     	;# 
  1984  0A1C                     	;# 
  1985  0A1C                     	;# 
  1986  0A1D                     	;# 
  1987  0A1D                     	;# 
  1988  0A1E                     	;# 
  1989  0A1E                     	;# 
  1990  0A1F                     	;# 
  1991  0A1F                     	;# 
  1992  0A1F                     	;# 
  1993  1E0F                     	;# 
  1994  1E10                     	;# 
  1995  1E11                     	;# 
  1996  1E12                     	;# 
  1997  1E13                     	;# 
  1998  1E14                     	;# 
  1999  1E15                     	;# 
  2000  1E16                     	;# 
  2001  1E17                     	;# 
  2002  1E18                     	;# 
  2003  1E19                     	;# 
  2004  1E1A                     	;# 
  2005  1E1B                     	;# 
  2006  1E1C                     	;# 
  2007  1E1D                     	;# 
  2008  1E1E                     	;# 
  2009  1E1F                     	;# 
  2010  1E20                     	;# 
  2011  1E21                     	;# 
  2012  1E22                     	;# 
  2013  1E23                     	;# 
  2014  1E24                     	;# 
  2015  1E25                     	;# 
  2016  1E26                     	;# 
  2017  1E27                     	;# 
  2018  1E28                     	;# 
  2019  1E29                     	;# 
  2020  1E2A                     	;# 
  2021  1E2B                     	;# 
  2022  1E2C                     	;# 
  2023  1E2D                     	;# 
  2024  1E2E                     	;# 
  2025  1E2F                     	;# 
  2026  1E30                     	;# 
  2027  1E31                     	;# 
  2028  1E32                     	;# 
  2029  1E33                     	;# 
  2030  1E34                     	;# 
  2031  1E35                     	;# 
  2032  1E36                     	;# 
  2033  1E37                     	;# 
  2034  1E8F                     	;# 
  2035  1E90                     	;# 
  2036  1E91                     	;# 
  2037  1E92                     	;# 
  2038  1E93                     	;# 
  2039  1E9C                     	;# 
  2040  1EA1                     	;# 
  2041  1EA2                     	;# 
  2042  1EB1                     	;# 
  2043  1EBB                     	;# 
  2044  1EBC                     	;# 
  2045  1EBD                     	;# 
  2046  1EBE                     	;# 
  2047  1EC3                     	;# 
  2048  1EC5                     	;# 
  2049  1EC6                     	;# 
  2050  1EC7                     	;# 
  2051  1EC8                     	;# 
  2052  1EC9                     	;# 
  2053  1ECA                     	;# 
  2054  1ECB                     	;# 
  2055  1ECC                     	;# 
  2056  1ECD                     	;# 
  2057  1ECE                     	;# 
  2058  1F10                     	;# 
  2059  1F11                     	;# 
  2060  1F12                     	;# 
  2061  1F13                     	;# 
  2062  1F14                     	;# 
  2063  1F15                     	;# 
  2064  1F16                     	;# 
  2065  1F17                     	;# 
  2066  1F18                     	;# 
  2067  1F19                     	;# 
  2068  1F1A                     	;# 
  2069  1F1B                     	;# 
  2070  1F1C                     	;# 
  2071  1F1D                     	;# 
  2072  1F1E                     	;# 
  2073  1F1F                     	;# 
  2074  1F20                     	;# 
  2075  1F21                     	;# 
  2076  1F22                     	;# 
  2077  1F23                     	;# 
  2078  1F24                     	;# 
  2079  1F25                     	;# 
  2080  1F26                     	;# 
  2081  1F27                     	;# 
  2082  1F38                     	;# 
  2083  1F39                     	;# 
  2084  1F3A                     	;# 
  2085  1F3B                     	;# 
  2086  1F3C                     	;# 
  2087  1F3D                     	;# 
  2088  1F3E                     	;# 
  2089  1F3F                     	;# 
  2090  1F43                     	;# 
  2091  1F44                     	;# 
  2092  1F45                     	;# 
  2093  1F46                     	;# 
  2094  1F47                     	;# 
  2095  1F48                     	;# 
  2096  1F49                     	;# 
  2097  1F4A                     	;# 
  2098  1F4E                     	;# 
  2099  1F4F                     	;# 
  2100  1F50                     	;# 
  2101  1F51                     	;# 
  2102  1F52                     	;# 
  2103  1F53                     	;# 
  2104  1F54                     	;# 
  2105  1F55                     	;# 
  2106  1F65                     	;# 
  2107  1F68                     	;# 
  2108  1F69                     	;# 
  2109  1F6A                     	;# 
  2110  1F6B                     	;# 
  2111  1FE4                     	;# 
  2112  1FE5                     	;# 
  2113  1FE6                     	;# 
  2114  1FE7                     	;# 
  2115  1FE8                     	;# 
  2116  1FE8                     	;# 
  2117  1FE9                     	;# 
  2118  1FEA                     	;# 
  2119  1FEA                     	;# 
  2120  1FEB                     	;# 
  2121  1FED                     	;# 
  2122  1FEE                     	;# 
  2123  1FEF                     	;# 
  2124                           
  2125                           	psect	idataBANK0
  2126  0747                     __pidataBANK0:	
  2127                           
  2128                           ;initializer for _LastSerialCMD
  2129  0747  342A               	retlw	42
  2130                           
  2131                           	psect	idataBANK1
  2132  0745                     __pidataBANK1:	
  2133                           
  2134                           ;initializer for _I2C1_slaveWriteData
  2135  0745  3455               	retlw	85
  2136                           
  2137                           ;initializer for _SerialCMDDone
  2138  0746  3401               	retlw	1
  2139                           
  2140                           	psect	nvBANK1
  2141  00EC                     __pnvBANK1:	
  2142  00EC                     _eusart1TxBufferRemaining:	
  2143  00EC                     	ds	1
  2144  001A                     _LATCbits	set	26
  2145  000B                     _INTCONbits	set	11
  2146  0014                     _TRISC	set	20
  2147  0013                     _TRISB	set	19
  2148  0012                     _TRISA	set	18
  2149  001A                     _LATC	set	26
  2150  0019                     _LATB	set	25
  2151  0018                     _LATA	set	24
  2152  005F                     _GIE	set	95
  2153  0119                     _RC1REG	set	281
  2154  011D                     _RC1STAbits	set	285
  2155  011A                     _TX1REG	set	282
  2156  011C                     _SP1BRGH	set	284
  2157  011B                     _SP1BRGL	set	283
  2158  011E                     _TX1STA	set	286
  2159  011D                     _RC1STA	set	285
  2160  011F                     _BAUD1CON	set	287
  2161  0190                     _SSP1CON1bits	set	400
  2162  0191                     _SSP1CON2bits	set	401
  2163  018F                     _SSP1STATbits	set	399
  2164  018C                     _SSP1BUF	set	396
  2165  018D                     _SSP1ADD	set	397
  2166  018E                     _SSP1MSK	set	398
  2167  0192                     _SSP1CON3	set	402
  2168  0191                     _SSP1CON2	set	401
  2169  0190                     _SSP1CON1	set	400
  2170  018F                     _SSP1STAT	set	399
  2171  070F                     _PIR3bits	set	1807
  2172  0719                     _PIE3bits	set	1817
  2173  0892                     _OSCTUNE	set	2194
  2174  0890                     _OSCSTAT	set	2192
  2175  0893                     _OSCFRQ	set	2195
  2176  0891                     _OSCEN	set	2193
  2177  088F                     _OSCCON3	set	2191
  2178  088D                     _OSCCON1	set	2189
  2179  1ECB                     _RX1DTPPSbits	set	7883
  2180  1EC6                     _SSP1DATPPSbits	set	7878
  2181  1EC5                     _SSP1CLKPPSbits	set	7877
  2182  1E8F                     _PPSLOCKbits	set	7823
  2183  1E8F                     _PPSLOCK	set	7823
  2184  1F26                     _RC6PPS	set	7974
  2185  1F24                     _RC4PPS	set	7972
  2186  1F23                     _RC3PPS	set	7971
  2187  1F50                     _ODCONC	set	8016
  2188  1F45                     _ODCONB	set	8005
  2189  1F3A                     _ODCONA	set	7994
  2190  1F4F                     _WPUC	set	8015
  2191  1F39                     _WPUA	set	7993
  2192  1F44                     _WPUB	set	8004
  2193  1F65                     _WPUE	set	8037
  2194  1F38                     _ANSELA	set	7992
  2195  1F43                     _ANSELB	set	8003
  2196  1F4E                     _ANSELC	set	8014
  2197                           
  2198                           ; #config settings
  2199  0000                     
  2200                           	psect	cinit
  2201  002C                     start_initialization:	
  2202  002C                     __initialization:	
  2203                           
  2204                           ; Initialize objects allocated to BANK0
  2205  002C  3187  2747  3180   	fcall	__pidataBANK0	;fetch initializer
  2206  002F  00EF               	movwf	__pdataBANK0& (0+127)
  2207                           
  2208                           ; Initialize objects allocated to BANK1
  2209  0030  0141               	movlb	1	; select bank1
  2210  0031  3187  2745  3180   	fcall	__pidataBANK1	;fetch initializer
  2211  0034  00EA               	movwf	__pdataBANK1& (0+127)
  2212  0035  3187  2746  3180   	fcall	__pidataBANK1+1	;fetch initializer
  2213  0038  00EB               	movwf	(__pdataBANK1+1)& (0+127)
  2214                           
  2215                           ; Clear objects allocated to BANK0
  2216  0039  0140               	movlb	0	; select bank0
  2217  003A  01EB               	clrf	__pbssBANK0& (0+127)
  2218  003B  01EC               	clrf	(__pbssBANK0+1)& (0+127)
  2219  003C  01ED               	clrf	(__pbssBANK0+2)& (0+127)
  2220  003D  01EE               	clrf	(__pbssBANK0+3)& (0+127)
  2221                           
  2222                           ; Clear objects allocated to BANK1
  2223  003E  30A0               	movlw	low __pbssBANK1
  2224  003F  0084               	movwf	4
  2225  0040  3000               	movlw	high __pbssBANK1
  2226  0041  0085               	movwf	5
  2227  0042  304A               	movlw	74
  2228  0043  3187  273F         	fcall	clear_ram0
  2229  0045                     end_of_initialization:	
  2230                           ;End of C runtime variable initialization code
  2231                           
  2232  0045                     __end_of__initialization:	
  2233  0045  107E               	bcf	int$flags,0	;clear compiler interrupt flag (level 1)
  2234  0046  0140               	movlb	0
  2235  0047  3187  2F37         	ljmp	_main	;jump to C main() function
  2236                           
  2237                           	psect	bssBANK0
  2238  006B                     __pbssBANK0:	
  2239  006B                     _OBC_LastCMD:	
  2240  006B                     	ds	1
  2241  006C                     _eusart1RxHead:	
  2242  006C                     	ds	1
  2243  006D                     _eusart1TxTail:	
  2244  006D                     	ds	1
  2245  006E                     _eusart1TxHead:	
  2246  006E                     	ds	1
  2247                           
  2248                           	psect	dataBANK0
  2249  006F                     __pdataBANK0:	
  2250  006F                     _LastSerialCMD:	
  2251  006F                     	ds	1
  2252                           
  2253                           	psect	bssBANK1
  2254  00A0                     __pbssBANK1:	
  2255  00A0                     _eusart1RxBuffer:	
  2256  00A0                     	ds	32
  2257  00C0                     _eusart1TxBuffer:	
  2258  00C0                     	ds	8
  2259  00C8                     _SERIAL_BUFF:	
  2260  00C8                     	ds	6
  2261  00CE                     _wMTQv:	
  2262  00CE                     	ds	6
  2263  00D4                     _floatUnion:	
  2264  00D4                     	ds	4
  2265  00D8                     _SerialLast:	
  2266  00D8                     	ds	4
  2267  00DC                     _wVAR:	
  2268  00DC                     	ds	4
  2269  00E0                     _rVAR:	
  2270  00E0                     	ds	4
  2271  00E4                     _SERIAL_BUFFcount:	
  2272  00E4                     	ds	1
  2273  00E5                     _WriteCMD:	
  2274  00E5                     	ds	1
  2275  00E6                     _wVAR_u:	
  2276  00E6                     	ds	1
  2277  00E7                     _rVAR_u:	
  2278  00E7                     	ds	1
  2279  00E8                     _eusart1RxCount:	
  2280  00E8                     	ds	1
  2281  00E9                     _eusart1RxTail:	
  2282  00E9                     	ds	1
  2283                           
  2284                           	psect	dataBANK1
  2285  00EA                     __pdataBANK1:	
  2286  00EA                     _I2C1_slaveWriteData:	
  2287  00EA                     	ds	1
  2288  00EB                     _SerialCMDDone:	
  2289  00EB                     	ds	1
  2290                           
  2291                           	psect	clrtext
  2292  073F                     clear_ram0:	
  2293                           ;	Called with FSR0 containing the base address, and
  2294                           ;	WREG with the size to clear
  2295                           
  2296  073F  0064               	clrwdt	;clear the watchdog before getting into this loop
  2297  0740                     clrloop0:	
  2298  0740  0180               	clrf	0	;clear RAM location pointed to by FSR
  2299  0741  3101               	addfsr 0,1
  2300  0742  0B89               	decfsz	9,f	;Have we reached the end of clearing yet?
  2301  0743  2F40               	goto	clrloop0	;have we reached the end yet?
  2302  0744  3400               	retlw	0	;all done for this memory range, return
  2303                           
  2304                           	psect	cstackBANK1
  2305  00ED                     __pcstackBANK1:	
  2306  00ED                     ??_PIN_MANAGER_Initialize:	
  2307  00ED                     ??_OSCILLATOR_Initialize:	
  2308                           ; 1 bytes @ 0x0
  2309                           
  2310  00ED                     ??_I2C1_Initialize:	
  2311                           ; 1 bytes @ 0x0
  2312                           
  2313  00ED                     ??_EUSART1_Initialize:	
  2314                           ; 1 bytes @ 0x0
  2315                           
  2316  00ED                     PIN_MANAGER_Initialize@state:	
  2317                           ; 1 bytes @ 0x0
  2318                           
  2319                           
  2320                           ; 1 bytes @ 0x0
  2321  00ED                     	ds	1
  2322  00EE                     ??_SYSTEM_Initialize:	
  2323  00EE                     ??_main:	
  2324                           ; 1 bytes @ 0x1
  2325                           
  2326                           
  2327                           	psect	cstackCOMMON
  2328  0070                     __pcstackCOMMON:	
  2329                           ; 1 bytes @ 0x1
  2330                           
  2331  0070                     ?_PIN_MANAGER_Initialize:	
  2332  0070                     ?_OSCILLATOR_Initialize:	
  2333                           ; 1 bytes @ 0x0
  2334                           
  2335  0070                     ?_I2C1_Initialize:	
  2336                           ; 1 bytes @ 0x0
  2337                           
  2338  0070                     ?_EUSART1_Initialize:	
  2339                           ; 1 bytes @ 0x0
  2340                           
  2341  0070                     ?_I2C1_ISR:	
  2342                           ; 1 bytes @ 0x0
  2343                           
  2344  0070                     ?_torVAR:	
  2345                           ; 1 bytes @ 0x0
  2346                           
  2347  0070                     ?_putinrVAR:	
  2348                           ; 1 bytes @ 0x0
  2349                           
  2350  0070                     ??_putinrVAR:	
  2351                           ; 1 bytes @ 0x0
  2352                           
  2353  0070                     ?_SYSTEM_Initialize:	
  2354                           ; 1 bytes @ 0x0
  2355                           
  2356  0070                     ?_EUSART1_Write:	
  2357                           ; 1 bytes @ 0x0
  2358                           
  2359  0070                     ??_EUSART1_Write:	
  2360                           ; 1 bytes @ 0x0
  2361                           
  2362  0070                     ?_EUSART1_Transmit_ISR:	
  2363                           ; 1 bytes @ 0x0
  2364                           
  2365  0070                     ??_EUSART1_Transmit_ISR:	
  2366                           ; 1 bytes @ 0x0
  2367                           
  2368  0070                     ?_EUSART1_Receive_ISR:	
  2369                           ; 1 bytes @ 0x0
  2370                           
  2371  0070                     ??_EUSART1_Receive_ISR:	
  2372                           ; 1 bytes @ 0x0
  2373                           
  2374  0070                     ?_INTERRUPT_InterruptManager:	
  2375                           ; 1 bytes @ 0x0
  2376                           
  2377  0070                     ?_main:	
  2378                           ; 1 bytes @ 0x0
  2379                           
  2380  0070                     ?___ftpack:	
  2381                           ; 1 bytes @ 0x0
  2382                           
  2383  0070                     torVAR@data:	
  2384                           ; 3 bytes @ 0x0
  2385                           
  2386  0070                     ___ftpack@arg:	
  2387                           ; 3 bytes @ 0x0
  2388                           
  2389                           
  2390                           ; 3 bytes @ 0x0
  2391  0070                     	ds	1
  2392  0071                     EUSART1_Write@txData:	
  2393                           
  2394                           ; 1 bytes @ 0x1
  2395  0071                     	ds	2
  2396  0073                     ??_torVAR:	
  2397  0073                     ___ftpack@exp:	
  2398                           ; 1 bytes @ 0x3
  2399                           
  2400                           
  2401                           ; 1 bytes @ 0x3
  2402  0073                     	ds	1
  2403  0074                     ___ftpack@sign:	
  2404  0074                     torVAR@floatUnion:	
  2405                           ; 1 bytes @ 0x4
  2406                           
  2407                           
  2408                           ; 4 bytes @ 0x4
  2409  0074                     	ds	1
  2410  0075                     ??___ftpack:	
  2411                           
  2412                           ; 1 bytes @ 0x5
  2413  0075                     	ds	3
  2414  0078                     ?___awtoft:	
  2415  0078                     ?___ftadd:	
  2416                           ; 3 bytes @ 0x8
  2417                           
  2418  0078                     torVAR@xount:	
  2419                           ; 3 bytes @ 0x8
  2420                           
  2421  0078                     ___awtoft@c:	
  2422                           ; 1 bytes @ 0x8
  2423                           
  2424  0078                     ___ftadd@f1:	
  2425                           ; 2 bytes @ 0x8
  2426                           
  2427                           
  2428                           ; 3 bytes @ 0x8
  2429  0078                     	ds	3
  2430  007B                     ??___awtoft:	
  2431  007B                     ___ftadd@f2:	
  2432                           ; 1 bytes @ 0xB
  2433                           
  2434                           
  2435                           ; 3 bytes @ 0xB
  2436  007B                     	ds	2
  2437  007D                     ___awtoft@sign:	
  2438                           
  2439                           ; 1 bytes @ 0xD
  2440  007D                     	ds	1
  2441                           
  2442                           	psect	cstackBANK0
  2443  0020                     __pcstackBANK0:	
  2444  0020                     ??___ftadd:	
  2445                           
  2446                           ; 1 bytes @ 0x0
  2447  0020                     	ds	4
  2448  0024                     ___ftadd@sign:	
  2449                           
  2450                           ; 1 bytes @ 0x4
  2451  0024                     	ds	1
  2452  0025                     ___ftadd@exp2:	
  2453                           
  2454                           ; 1 bytes @ 0x5
  2455  0025                     	ds	1
  2456  0026                     ___ftadd@exp1:	
  2457                           
  2458                           ; 1 bytes @ 0x6
  2459  0026                     	ds	1
  2460  0027                     ?___ftdiv:	
  2461  0027                     ___ftdiv@f2:	
  2462                           ; 3 bytes @ 0x7
  2463                           
  2464                           
  2465                           ; 3 bytes @ 0x7
  2466  0027                     	ds	3
  2467  002A                     ___ftdiv@f1:	
  2468                           
  2469                           ; 3 bytes @ 0xA
  2470  002A                     	ds	3
  2471  002D                     ??___ftdiv:	
  2472                           
  2473                           ; 1 bytes @ 0xD
  2474  002D                     	ds	4
  2475  0031                     ___ftdiv@cntr:	
  2476                           
  2477                           ; 1 bytes @ 0x11
  2478  0031                     	ds	1
  2479  0032                     ___ftdiv@f3:	
  2480                           
  2481                           ; 3 bytes @ 0x12
  2482  0032                     	ds	3
  2483  0035                     ___ftdiv@exp:	
  2484                           
  2485                           ; 1 bytes @ 0x15
  2486  0035                     	ds	1
  2487  0036                     ___ftdiv@sign:	
  2488                           
  2489                           ; 1 bytes @ 0x16
  2490  0036                     	ds	1
  2491  0037                     ?___ftmul:	
  2492  0037                     ___ftmul@f1:	
  2493                           ; 3 bytes @ 0x17
  2494                           
  2495                           
  2496                           ; 3 bytes @ 0x17
  2497  0037                     	ds	3
  2498  003A                     ___ftmul@f2:	
  2499                           
  2500                           ; 3 bytes @ 0x1A
  2501  003A                     	ds	3
  2502  003D                     ??___ftmul:	
  2503                           
  2504                           ; 1 bytes @ 0x1D
  2505  003D                     	ds	4
  2506  0041                     ___ftmul@exp:	
  2507                           
  2508                           ; 1 bytes @ 0x21
  2509  0041                     	ds	1
  2510  0042                     ___ftmul@f3_as_product:	
  2511                           
  2512                           ; 3 bytes @ 0x22
  2513  0042                     	ds	3
  2514  0045                     ___ftmul@cntr:	
  2515                           
  2516                           ; 1 bytes @ 0x25
  2517  0045                     	ds	1
  2518  0046                     ___ftmul@sign:	
  2519                           
  2520                           ; 1 bytes @ 0x26
  2521  0046                     	ds	1
  2522  0047                     ?___fttol:	
  2523  0047                     ___fttol@f1:	
  2524                           ; 4 bytes @ 0x27
  2525                           
  2526                           
  2527                           ; 3 bytes @ 0x27
  2528  0047                     	ds	4
  2529  004B                     ??___fttol:	
  2530                           
  2531                           ; 1 bytes @ 0x2B
  2532  004B                     	ds	4
  2533  004F                     ___fttol@sign1:	
  2534                           
  2535                           ; 1 bytes @ 0x2F
  2536  004F                     	ds	1
  2537  0050                     ___fttol@lval:	
  2538                           
  2539                           ; 4 bytes @ 0x30
  2540  0050                     	ds	4
  2541  0054                     ___fttol@exp1:	
  2542                           
  2543                           ; 1 bytes @ 0x34
  2544  0054                     	ds	1
  2545  0055                     ?_I2C1_StatusCallback:	
  2546  0055                     I2C1_StatusCallback@dataI2C:	
  2547                           ; 1 bytes @ 0x35
  2548                           
  2549                           
  2550                           ; 1 bytes @ 0x35
  2551  0055                     	ds	1
  2552  0056                     ??_I2C1_StatusCallback:	
  2553                           
  2554                           ; 1 bytes @ 0x36
  2555  0056                     	ds	4
  2556  005A                     I2C1_StatusCallback@R1:	
  2557                           
  2558                           ; 3 bytes @ 0x3A
  2559  005A                     	ds	3
  2560  005D                     _I2C1_StatusCallback$1148:	
  2561                           
  2562                           ; 3 bytes @ 0x3D
  2563  005D                     	ds	3
  2564  0060                     I2C1_StatusCallback@i2c_bus_state:	
  2565                           
  2566                           ; 1 bytes @ 0x40
  2567  0060                     	ds	1
  2568  0061                     I2C1_StatusCallback@R2:	
  2569                           
  2570                           ; 3 bytes @ 0x41
  2571  0061                     	ds	3
  2572  0064                     I2C1_StatusCallback@val16:	
  2573                           
  2574                           ; 2 bytes @ 0x44
  2575  0064                     	ds	2
  2576  0066                     I2C1_StatusCallback@val:	
  2577                           
  2578                           ; 2 bytes @ 0x46
  2579  0066                     	ds	2
  2580  0068                     ??_I2C1_ISR:	
  2581                           
  2582                           ; 1 bytes @ 0x48
  2583  0068                     	ds	1
  2584  0069                     I2C1_ISR@i2c_data:	
  2585                           
  2586                           ; 1 bytes @ 0x49
  2587  0069                     	ds	1
  2588  006A                     ??_INTERRUPT_InterruptManager:	
  2589                           
  2590                           ; 1 bytes @ 0x4A
  2591  006A                     	ds	1
  2592                           
  2593                           	psect	maintext
  2594  0737                     __pmaintext:	
  2595 ;;
  2596 ;;Main: autosize = 0, tempsize = 0, incstack = 0, save=0
  2597 ;;
  2598 ;; *************** function _main *****************
  2599 ;; Defined at:
  2600 ;;		line 11 in file "main.c"
  2601 ;; Parameters:    Size  Location     Type
  2602 ;;		None
  2603 ;; Auto vars:     Size  Location     Type
  2604 ;;		None
  2605 ;; Return value:  Size  Location     Type
  2606 ;;                  1    wreg      void 
  2607 ;; Registers used:
  2608 ;;		wreg, status,2, status,0, pclath, cstack
  2609 ;; Tracked objects:
  2610 ;;		On entry : B3F/0
  2611 ;;		On exit  : 0/0
  2612 ;;		Unchanged: 0/0
  2613 ;; Data sizes:     COMMON   BANK0   BANK1   BANK2   BANK3   BANK4   BANK5   BANK6   BANK7   BANK8   BANK9  BANK10  BANK1
      +1  BANK12
  2614 ;;      Params:         0       0       0       0       0       0       0       0       0       0       0       0       
      +0       0
  2615 ;;      Locals:         0       0       0       0       0       0       0       0       0       0       0       0       
      +0       0
  2616 ;;      Temps:          0       0       0       0       0       0       0       0       0       0       0       0       
      +0       0
  2617 ;;      Totals:         0       0       0       0       0       0       0       0       0       0       0       0       
      +0       0
  2618 ;;Total ram usage:        0 bytes
  2619 ;; Hardware stack levels required when called:    7
  2620 ;; This function calls:
  2621 ;;		_SYSTEM_Initialize
  2622 ;; This function is called by:
  2623 ;;		Startup code after reset
  2624 ;; This function uses a non-reentrant model
  2625 ;;
  2626                           
  2627                           
  2628                           ;psect for function _main
  2629  0737                     _main:	
  2630                           
  2631                           ;main.c: 14: SYSTEM_Initialize();
  2632                           
  2633                           ;incstack = 0
  2634                           ; Regs used in _main: [wreg+status,2+status,0+pclath+cstack]
  2635  0737  3187  2721  3187   	fcall	_SYSTEM_Initialize
  2636                           
  2637                           ;main.c: 20: (INTCONbits.GIE = 1);
  2638  073A  178B               	bsf	11,7	;volatile
  2639                           
  2640                           ;main.c: 23: (INTCONbits.PEIE = 1);
  2641  073B  170B               	bsf	11,6	;volatile
  2642                           
  2643                           ;main.c: 30: do { LATCbits.LATC7 = 0; } while(0);
  2644  073C  0140               	movlb	0	; select bank0
  2645  073D  139A               	bcf	26,7	;volatile
  2646  073E                     l436:	
  2647                           ;main.c: 32: while (1){
  2648                           
  2649  073E  2F3E               	goto	l436
  2650  073F                     __end_of_main:	
  2651                           
  2652                           	psect	text1
  2653  0721                     __ptext1:	
  2654 ;; *************** function _SYSTEM_Initialize *****************
  2655 ;; Defined at:
  2656 ;;		line 86 in file "mcc_generated_files/mcc.c"
  2657 ;; Parameters:    Size  Location     Type
  2658 ;;		None
  2659 ;; Auto vars:     Size  Location     Type
  2660 ;;		None
  2661 ;; Return value:  Size  Location     Type
  2662 ;;                  1    wreg      void 
  2663 ;; Registers used:
  2664 ;;		wreg, status,2, status,0, pclath, cstack
  2665 ;; Tracked objects:
  2666 ;;		On entry : 0/0
  2667 ;;		On exit  : 0/0
  2668 ;;		Unchanged: 0/0
  2669 ;; Data sizes:     COMMON   BANK0   BANK1   BANK2   BANK3   BANK4   BANK5   BANK6   BANK7   BANK8   BANK9  BANK10  BANK1
      +1  BANK12
  2670 ;;      Params:         0       0       0       0       0       0       0       0       0       0       0       0       
      +0       0
  2671 ;;      Locals:         0       0       0       0       0       0       0       0       0       0       0       0       
      +0       0
  2672 ;;      Temps:          0       0       0       0       0       0       0       0       0       0       0       0       
      +0       0
  2673 ;;      Totals:         0       0       0       0       0       0       0       0       0       0       0       0       
      +0       0
  2674 ;;Total ram usage:        0 bytes
  2675 ;; Hardware stack levels used:    1
  2676 ;; Hardware stack levels required when called:    6
  2677 ;; This function calls:
  2678 ;;		_EUSART1_Initialize
  2679 ;;		_I2C1_Initialize
  2680 ;;		_OSCILLATOR_Initialize
  2681 ;;		_PIN_MANAGER_Initialize
  2682 ;; This function is called by:
  2683 ;;		_main
  2684 ;; This function uses a non-reentrant model
  2685 ;;
  2686                           
  2687                           
  2688                           ;psect for function _SYSTEM_Initialize
  2689  0721                     _SYSTEM_Initialize:	
  2690                           
  2691                           ;mcc.c: 89: PIN_MANAGER_Initialize();
  2692                           
  2693                           ;incstack = 0
  2694                           ; Regs used in _SYSTEM_Initialize: [wreg+status,2+status,0+pclath+cstack]
  2695  0721  3185  25A2  3187   	fcall	_PIN_MANAGER_Initialize
  2696                           
  2697                           ;mcc.c: 90: OSCILLATOR_Initialize();
  2698  0724  3187  272D  3187   	fcall	_OSCILLATOR_Initialize
  2699                           
  2700                           ;mcc.c: 91: I2C1_Initialize();
  2701  0727  3187  2711  3187   	fcall	_I2C1_Initialize
  2702                           
  2703                           ;mcc.c: 92: EUSART1_Initialize();
  2704  072A  3186  26D7         	fcall	_EUSART1_Initialize
  2705  072C  0008               	return
  2706  072D                     __end_of_SYSTEM_Initialize:	
  2707                           
  2708                           	psect	text2
  2709  05A2                     __ptext2:	
  2710 ;; *************** function _PIN_MANAGER_Initialize *****************
  2711 ;; Defined at:
  2712 ;;		line 51 in file "mcc_generated_files/pin_manager.c"
  2713 ;; Parameters:    Size  Location     Type
  2714 ;;		None
  2715 ;; Auto vars:     Size  Location     Type
  2716 ;;  state           1    0[BANK1 ] unsigned char 
  2717 ;; Return value:  Size  Location     Type
  2718 ;;                  1    wreg      void 
  2719 ;; Registers used:
  2720 ;;		wreg, status,2, status,0
  2721 ;; Tracked objects:
  2722 ;;		On entry : 0/0
  2723 ;;		On exit  : 0/0
  2724 ;;		Unchanged: 0/0
  2725 ;; Data sizes:     COMMON   BANK0   BANK1   BANK2   BANK3   BANK4   BANK5   BANK6   BANK7   BANK8   BANK9  BANK10  BANK1
      +1  BANK12
  2726 ;;      Params:         0       0       0       0       0       0       0       0       0       0       0       0       
      +0       0
  2727 ;;      Locals:         0       0       1       0       0       0       0       0       0       0       0       0       
      +0       0
  2728 ;;      Temps:          0       0       0       0       0       0       0       0       0       0       0       0       
      +0       0
  2729 ;;      Totals:         0       0       1       0       0       0       0       0       0       0       0       0       
      +0       0
  2730 ;;Total ram usage:        1 bytes
  2731 ;; Hardware stack levels used:    1
  2732 ;; Hardware stack levels required when called:    5
  2733 ;; This function calls:
  2734 ;;		Nothing
  2735 ;; This function is called by:
  2736 ;;		_SYSTEM_Initialize
  2737 ;; This function uses a non-reentrant model
  2738 ;;
  2739                           
  2740                           
  2741                           ;psect for function _PIN_MANAGER_Initialize
  2742  05A2                     _PIN_MANAGER_Initialize:	
  2743                           
  2744                           ;pin_manager.c: 56: LATA = 0x00;
  2745                           
  2746                           ;incstack = 0
  2747                           ; Regs used in _PIN_MANAGER_Initialize: [wreg+status,2+status,0]
  2748  05A2  0140               	movlb	0	; select bank0
  2749  05A3  0198               	clrf	24	;volatile
  2750                           
  2751                           ;pin_manager.c: 57: LATB = 0x00;
  2752  05A4  0199               	clrf	25	;volatile
  2753                           
  2754                           ;pin_manager.c: 58: LATC = 0x00;
  2755  05A5  019A               	clrf	26	;volatile
  2756                           
  2757                           ;pin_manager.c: 63: TRISA = 0xFF;
  2758  05A6  30FF               	movlw	255
  2759  05A7  0092               	movwf	18	;volatile
  2760                           
  2761                           ;pin_manager.c: 64: TRISB = 0xFF;
  2762  05A8  30FF               	movlw	255
  2763  05A9  0093               	movwf	19	;volatile
  2764                           
  2765                           ;pin_manager.c: 65: TRISC = 0x3F;
  2766  05AA  303F               	movlw	63
  2767  05AB  0094               	movwf	20	;volatile
  2768                           
  2769                           ;pin_manager.c: 70: ANSELC = 0x87;
  2770  05AC  3087               	movlw	135
  2771  05AD  017E               	movlb	62	; select bank62
  2772  05AE  00CE               	movwf	78	;volatile
  2773                           
  2774                           ;pin_manager.c: 71: ANSELB = 0xFF;
  2775  05AF  30FF               	movlw	255
  2776  05B0  00C3               	movwf	67	;volatile
  2777                           
  2778                           ;pin_manager.c: 72: ANSELA = 0xFF;
  2779  05B1  30FF               	movlw	255
  2780  05B2  00B8               	movwf	56	;volatile
  2781                           
  2782                           ;pin_manager.c: 77: WPUE = 0x00;
  2783  05B3  01E5               	clrf	101	;volatile
  2784                           
  2785                           ;pin_manager.c: 78: WPUB = 0x00;
  2786  05B4  01C4               	clrf	68	;volatile
  2787                           
  2788                           ;pin_manager.c: 79: WPUA = 0x00;
  2789  05B5  01B9               	clrf	57	;volatile
  2790                           
  2791                           ;pin_manager.c: 80: WPUC = 0x00;
  2792  05B6  01CF               	clrf	79	;volatile
  2793                           
  2794                           ;pin_manager.c: 85: ODCONA = 0x00;
  2795  05B7  01BA               	clrf	58	;volatile
  2796                           
  2797                           ;pin_manager.c: 86: ODCONB = 0x00;
  2798  05B8  01C5               	clrf	69	;volatile
  2799                           
  2800                           ;pin_manager.c: 87: ODCONC = 0x00;
  2801  05B9  01D0               	clrf	80	;volatile
  2802                           
  2803                           ;pin_manager.c: 97: bool state = GIE;
  2804  05BA  3000               	movlw	0
  2805  05BB  1B8B               	btfsc	11,7	;volatile
  2806  05BC  3001               	movlw	1
  2807  05BD  0141               	movlb	1	; select bank1
  2808  05BE  00ED               	movwf	PIN_MANAGER_Initialize@state^(0+128)
  2809                           
  2810                           ;pin_manager.c: 98: GIE = 0;
  2811  05BF  138B               	bcf	11,7	;volatile
  2812                           
  2813                           ;pin_manager.c: 99: PPSLOCK = 0x55;
  2814  05C0  3055               	movlw	85
  2815  05C1  017D               	movlb	61	; select bank61
  2816  05C2  008F               	movwf	15	;volatile
  2817                           
  2818                           ;pin_manager.c: 100: PPSLOCK = 0xAA;
  2819  05C3  30AA               	movlw	170
  2820  05C4  008F               	movwf	15	;volatile
  2821                           
  2822                           ;pin_manager.c: 101: PPSLOCKbits.PPSLOCKED = 0x00;
  2823  05C5  100F               	bcf	15,0	;volatile
  2824                           
  2825                           ;pin_manager.c: 103: SSP1CLKPPSbits.SSP1CLKPPS = 0x13;
  2826  05C6  0845               	movf	69,w	;volatile
  2827  05C7  39C0               	andlw	-64
  2828  05C8  3813               	iorlw	19
  2829  05C9  00C5               	movwf	69	;volatile
  2830                           
  2831                           ;pin_manager.c: 104: SSP1DATPPSbits.SSP1DATPPS = 0x14;
  2832  05CA  0846               	movf	70,w	;volatile
  2833  05CB  39C0               	andlw	-64
  2834  05CC  3814               	iorlw	20
  2835  05CD  00C6               	movwf	70	;volatile
  2836                           
  2837                           ;pin_manager.c: 105: RC3PPS = 0x15;
  2838  05CE  3015               	movlw	21
  2839  05CF  017E               	movlb	62	; select bank62
  2840  05D0  00A3               	movwf	35	;volatile
  2841                           
  2842                           ;pin_manager.c: 106: RC4PPS = 0x16;
  2843  05D1  3016               	movlw	22
  2844  05D2  00A4               	movwf	36	;volatile
  2845                           
  2846                           ;pin_manager.c: 107: RX1DTPPSbits.RX1DTPPS = 0x15;
  2847  05D3  017D               	movlb	61	; select bank61
  2848  05D4  084B               	movf	75,w	;volatile
  2849  05D5  39C0               	andlw	-64
  2850  05D6  3815               	iorlw	21
  2851  05D7  00CB               	movwf	75	;volatile
  2852                           
  2853                           ;pin_manager.c: 108: RC6PPS = 0x0F;
  2854  05D8  300F               	movlw	15
  2855  05D9  017E               	movlb	62	; select bank62
  2856  05DA  00A6               	movwf	38	;volatile
  2857                           
  2858                           ;pin_manager.c: 110: PPSLOCK = 0x55;
  2859  05DB  3055               	movlw	85
  2860  05DC  017D               	movlb	61	; select bank61
  2861  05DD  008F               	movwf	15	;volatile
  2862                           
  2863                           ;pin_manager.c: 111: PPSLOCK = 0xAA;
  2864  05DE  30AA               	movlw	170
  2865  05DF  008F               	movwf	15	;volatile
  2866                           
  2867                           ;pin_manager.c: 112: PPSLOCKbits.PPSLOCKED = 0x01;
  2868  05E0  140F               	bsf	15,0	;volatile
  2869                           
  2870                           ;pin_manager.c: 114: GIE = state;
  2871  05E1  0141               	movlb	1	; select bank1
  2872  05E2  1C6D               	btfss	PIN_MANAGER_Initialize@state^(0+128),0
  2873  05E3  2DE6               	goto	u1660
  2874  05E4  178B               	bsf	11,7	;volatile
  2875  05E5  0008               	return
  2876  05E6                     u1660:	
  2877  05E6  138B               	bcf	11,7	;volatile
  2878  05E7  0008               	return
  2879  05E8                     __end_of_PIN_MANAGER_Initialize:	
  2880                           
  2881                           	psect	text3
  2882  072D                     __ptext3:	
  2883 ;; *************** function _OSCILLATOR_Initialize *****************
  2884 ;; Defined at:
  2885 ;;		line 95 in file "mcc_generated_files/mcc.c"
  2886 ;; Parameters:    Size  Location     Type
  2887 ;;		None
  2888 ;; Auto vars:     Size  Location     Type
  2889 ;;		None
  2890 ;; Return value:  Size  Location     Type
  2891 ;;                  1    wreg      void 
  2892 ;; Registers used:
  2893 ;;		wreg, status,2
  2894 ;; Tracked objects:
  2895 ;;		On entry : 0/0
  2896 ;;		On exit  : 0/0
  2897 ;;		Unchanged: 0/0
  2898 ;; Data sizes:     COMMON   BANK0   BANK1   BANK2   BANK3   BANK4   BANK5   BANK6   BANK7   BANK8   BANK9  BANK10  BANK1
      +1  BANK12
  2899 ;;      Params:         0       0       0       0       0       0       0       0       0       0       0       0       
      +0       0
  2900 ;;      Locals:         0       0       0       0       0       0       0       0       0       0       0       0       
      +0       0
  2901 ;;      Temps:          0       0       0       0       0       0       0       0       0       0       0       0       
      +0       0
  2902 ;;      Totals:         0       0       0       0       0       0       0       0       0       0       0       0       
      +0       0
  2903 ;;Total ram usage:        0 bytes
  2904 ;; Hardware stack levels used:    1
  2905 ;; Hardware stack levels required when called:    5
  2906 ;; This function calls:
  2907 ;;		Nothing
  2908 ;; This function is called by:
  2909 ;;		_SYSTEM_Initialize
  2910 ;; This function uses a non-reentrant model
  2911 ;;
  2912                           
  2913                           
  2914                           ;psect for function _OSCILLATOR_Initialize
  2915  072D                     _OSCILLATOR_Initialize:	
  2916                           
  2917                           ;mcc.c: 98: OSCCON1 = 0x62;
  2918                           
  2919                           ;incstack = 0
  2920                           ; Regs used in _OSCILLATOR_Initialize: [wreg+status,2]
  2921  072D  3062               	movlw	98
  2922  072E  0151               	movlb	17	; select bank17
  2923  072F  008D               	movwf	13	;volatile
  2924                           
  2925                           ;mcc.c: 100: OSCCON3 = 0x00;
  2926  0730  018F               	clrf	15	;volatile
  2927                           
  2928                           ;mcc.c: 102: OSCEN = 0x00;
  2929  0731  0191               	clrf	17	;volatile
  2930                           
  2931                           ;mcc.c: 104: OSCFRQ = 0x02;
  2932  0732  3002               	movlw	2
  2933  0733  0093               	movwf	19	;volatile
  2934                           
  2935                           ;mcc.c: 106: OSCSTAT = 0x00;
  2936  0734  0190               	clrf	16	;volatile
  2937                           
  2938                           ;mcc.c: 108: OSCTUNE = 0x00;
  2939  0735  0192               	clrf	18	;volatile
  2940  0736  0008               	return
  2941  0737                     __end_of_OSCILLATOR_Initialize:	
  2942                           
  2943                           	psect	text4
  2944  0711                     __ptext4:	
  2945 ;; *************** function _I2C1_Initialize *****************
  2946 ;; Defined at:
  2947 ;;		line 43 in file "mcc_generated_files/i2c1.c"
  2948 ;; Parameters:    Size  Location     Type
  2949 ;;		None
  2950 ;; Auto vars:     Size  Location     Type
  2951 ;;		None
  2952 ;; Return value:  Size  Location     Type
  2953 ;;                  1    wreg      void 
  2954 ;; Registers used:
  2955 ;;		wreg, status,2
  2956 ;; Tracked objects:
  2957 ;;		On entry : 0/0
  2958 ;;		On exit  : 0/0
  2959 ;;		Unchanged: 0/0
  2960 ;; Data sizes:     COMMON   BANK0   BANK1   BANK2   BANK3   BANK4   BANK5   BANK6   BANK7   BANK8   BANK9  BANK10  BANK1
      +1  BANK12
  2961 ;;      Params:         0       0       0       0       0       0       0       0       0       0       0       0       
      +0       0
  2962 ;;      Locals:         0       0       0       0       0       0       0       0       0       0       0       0       
      +0       0
  2963 ;;      Temps:          0       0       0       0       0       0       0       0       0       0       0       0       
      +0       0
  2964 ;;      Totals:         0       0       0       0       0       0       0       0       0       0       0       0       
      +0       0
  2965 ;;Total ram usage:        0 bytes
  2966 ;; Hardware stack levels used:    1
  2967 ;; Hardware stack levels required when called:    5
  2968 ;; This function calls:
  2969 ;;		Nothing
  2970 ;; This function is called by:
  2971 ;;		_SYSTEM_Initialize
  2972 ;; This function uses a non-reentrant model
  2973 ;;
  2974                           
  2975                           
  2976                           ;psect for function _I2C1_Initialize
  2977  0711                     _I2C1_Initialize:	
  2978                           
  2979                           ;i2c1.c: 47: SSP1STAT = 0x00;
  2980                           
  2981                           ;incstack = 0
  2982                           ; Regs used in _I2C1_Initialize: [wreg+status,2]
  2983  0711  0143               	movlb	3	; select bank3
  2984  0712  018F               	clrf	15	;volatile
  2985                           
  2986                           ;i2c1.c: 49: SSP1CON1 = 0x26;
  2987  0713  3026               	movlw	38
  2988  0714  0090               	movwf	16	;volatile
  2989                           
  2990                           ;i2c1.c: 51: SSP1CON2 = 0x01;
  2991  0715  3001               	movlw	1
  2992  0716  0091               	movwf	17	;volatile
  2993                           
  2994                           ;i2c1.c: 53: SSP1CON3 = 0x08;
  2995  0717  3008               	movlw	8
  2996  0718  0092               	movwf	18	;volatile
  2997                           
  2998                           ;i2c1.c: 55: SSP1MSK = (0x7F << 1);
  2999  0719  30FE               	movlw	254
  3000  071A  008E               	movwf	14	;volatile
  3001                           
  3002                           ;i2c1.c: 57: SSP1ADD = (0x22 << 1);
  3003  071B  3044               	movlw	68
  3004  071C  008D               	movwf	13	;volatile
  3005                           
  3006                           ;i2c1.c: 60: PIR3bits.SSP1IF = 0;
  3007  071D  014E               	movlb	14	; select bank14
  3008  071E  100F               	bcf	15,0	;volatile
  3009                           
  3010                           ;i2c1.c: 62: PIE3bits.SSP1IE = 1;
  3011  071F  1419               	bsf	25,0	;volatile
  3012  0720  0008               	return
  3013  0721                     __end_of_I2C1_Initialize:	
  3014                           
  3015                           	psect	text5
  3016  06D7                     __ptext5:	
  3017 ;; *************** function _EUSART1_Initialize *****************
  3018 ;; Defined at:
  3019 ;;		line 61 in file "mcc_generated_files/eusart1.c"
  3020 ;; Parameters:    Size  Location     Type
  3021 ;;		None
  3022 ;; Auto vars:     Size  Location     Type
  3023 ;;		None
  3024 ;; Return value:  Size  Location     Type
  3025 ;;                  1    wreg      void 
  3026 ;; Registers used:
  3027 ;;		wreg, status,2
  3028 ;; Tracked objects:
  3029 ;;		On entry : 0/0
  3030 ;;		On exit  : 0/0
  3031 ;;		Unchanged: 0/0
  3032 ;; Data sizes:     COMMON   BANK0   BANK1   BANK2   BANK3   BANK4   BANK5   BANK6   BANK7   BANK8   BANK9  BANK10  BANK1
      +1  BANK12
  3033 ;;      Params:         0       0       0       0       0       0       0       0       0       0       0       0       
      +0       0
  3034 ;;      Locals:         0       0       0       0       0       0       0       0       0       0       0       0       
      +0       0
  3035 ;;      Temps:          0       0       1       0       0       0       0       0       0       0       0       0       
      +0       0
  3036 ;;      Totals:         0       0       1       0       0       0       0       0       0       0       0       0       
      +0       0
  3037 ;;Total ram usage:        1 bytes
  3038 ;; Hardware stack levels used:    1
  3039 ;; Hardware stack levels required when called:    5
  3040 ;; This function calls:
  3041 ;;		Nothing
  3042 ;; This function is called by:
  3043 ;;		_SYSTEM_Initialize
  3044 ;; This function uses a non-reentrant model
  3045 ;;
  3046                           
  3047                           
  3048                           ;psect for function _EUSART1_Initialize
  3049  06D7                     _EUSART1_Initialize:	
  3050                           
  3051                           ;eusart1.c: 64: PIE3bits.RC1IE = 0;
  3052                           
  3053                           ;incstack = 0
  3054                           ; Regs used in _EUSART1_Initialize: [wreg+status,2]
  3055  06D7  014E               	movlb	14	; select bank14
  3056  06D8  1299               	bcf	25,5	;volatile
  3057                           
  3058                           ;eusart1.c: 65: PIE3bits.TX1IE = 0;
  3059  06D9  1219               	bcf	25,4	;volatile
  3060                           
  3061                           ;eusart1.c: 70: BAUD1CON = 0x08;
  3062  06DA  3008               	movlw	8
  3063  06DB  0142               	movlb	2	; select bank2
  3064  06DC  009F               	movwf	31	;volatile
  3065                           
  3066                           ;eusart1.c: 73: RC1STA = 0x90;
  3067  06DD  3090               	movlw	144
  3068  06DE  009D               	movwf	29	;volatile
  3069                           
  3070                           ;eusart1.c: 76: TX1STA = 0x24;
  3071  06DF  3024               	movlw	36
  3072  06E0  009E               	movwf	30	;volatile
  3073                           
  3074                           ;eusart1.c: 79: SP1BRGL = 0x19;
  3075  06E1  3019               	movlw	25
  3076  06E2  009B               	movwf	27	;volatile
  3077                           
  3078                           ;eusart1.c: 82: SP1BRGH = 0x00;
  3079  06E3  019C               	clrf	28	;volatile
  3080                           
  3081                           ;eusart1.c: 86: eusart1TxHead = 0;
  3082  06E4  0140               	movlb	0	; select bank0
  3083  06E5  01EE               	clrf	_eusart1TxHead
  3084                           
  3085                           ;eusart1.c: 87: eusart1TxTail = 0;
  3086  06E6  01ED               	clrf	_eusart1TxTail
  3087                           
  3088                           ;eusart1.c: 88: eusart1TxBufferRemaining = sizeof(eusart1TxBuffer);
  3089  06E7  3008               	movlw	8
  3090  06E8  0141               	movlb	1	; select bank1
  3091  06E9  00ED               	movwf	??_EUSART1_Initialize^(0+128)
  3092  06EA  086D               	movf	??_EUSART1_Initialize^(0+128),w
  3093  06EB  00EC               	movwf	_eusart1TxBufferRemaining^(0+128)
  3094                           
  3095                           ;eusart1.c: 90: eusart1RxHead = 0;
  3096  06EC  0140               	movlb	0	; select bank0
  3097  06ED  01EC               	clrf	_eusart1RxHead
  3098                           
  3099                           ;eusart1.c: 91: eusart1RxTail = 0;
  3100  06EE  0141               	movlb	1	; select bank1
  3101  06EF  01E9               	clrf	_eusart1RxTail^(0+128)
  3102                           
  3103                           ;eusart1.c: 92: eusart1RxCount = 0;
  3104  06F0  01E8               	clrf	_eusart1RxCount^(0+128)
  3105                           
  3106                           ;eusart1.c: 95: PIE3bits.RC1IE = 1;
  3107  06F1  014E               	movlb	14	; select bank14
  3108  06F2  1699               	bsf	25,5	;volatile
  3109  06F3  0008               	return
  3110  06F4                     __end_of_EUSART1_Initialize:	
  3111                           
  3112                           	psect	intentry
  3113  0004                     __pintentry:	
  3114 ;; *************** function _INTERRUPT_InterruptManager *****************
  3115 ;; Defined at:
  3116 ;;		line 51 in file "mcc_generated_files/interrupt_manager.c"
  3117 ;; Parameters:    Size  Location     Type
  3118 ;;		None
  3119 ;; Auto vars:     Size  Location     Type
  3120 ;;		None
  3121 ;; Return value:  Size  Location     Type
  3122 ;;                  1    wreg      void 
  3123 ;; Registers used:
  3124 ;;		wreg, fsr0l, fsr0h, fsr1l, fsr1h, status,2, status,0, pclath, cstack
  3125 ;; Tracked objects:
  3126 ;;		On entry : 0/0
  3127 ;;		On exit  : 0/0
  3128 ;;		Unchanged: 0/0
  3129 ;; Data sizes:     COMMON   BANK0   BANK1   BANK2   BANK3   BANK4   BANK5   BANK6   BANK7   BANK8   BANK9  BANK10  BANK1
      +1  BANK12
  3130 ;;      Params:         0       0       0       0       0       0       0       0       0       0       0       0       
      +0       0
  3131 ;;      Locals:         0       0       0       0       0       0       0       0       0       0       0       0       
      +0       0
  3132 ;;      Temps:          0       1       0       0       0       0       0       0       0       0       0       0       
      +0       0
  3133 ;;      Totals:         0       1       0       0       0       0       0       0       0       0       0       0       
      +0       0
  3134 ;;Total ram usage:        1 bytes
  3135 ;; Hardware stack levels used:    1
  3136 ;; Hardware stack levels required when called:    4
  3137 ;; This function calls:
  3138 ;;		_EUSART1_Receive_ISR
  3139 ;;		_EUSART1_Transmit_ISR
  3140 ;;		_I2C1_ISR
  3141 ;; This function is called by:
  3142 ;;		Interrupt level 1
  3143 ;; This function uses a non-reentrant model
  3144 ;;
  3145                           
  3146  0004                     _INTERRUPT_InterruptManager:	
  3147                           
  3148                           ;incstack = 0
  3149  0004  147E               	bsf	126,0	;set compiler interrupt flag (level 1)
  3150                           
  3151                           ; Regs used in _INTERRUPT_InterruptManager: [wreg-fsr1h+status,2+status,0+pclath+cstack]
  3152  0005  3180               	pagesel	$
  3153  0006  0140               	movlb	0	; select bank0
  3154  0007  087F               	movf	127,w
  3155  0008  00EA               	movwf	??_INTERRUPT_InterruptManager
  3156                           
  3157                           ;interrupt_manager.c: 54: if(INTCONbits.PEIE == 1 && PIE3bits.SSP1IE == 1 && PIR3bits.SS
      +                          P1IF == 1)
  3158  0009  1F0B               	btfss	11,6	;volatile
  3159  000A  2813               	goto	i1l244
  3160  000B  014E               	movlb	14	; select bank14
  3161  000C  1819               	btfsc	25,0	;volatile
  3162  000D  1C0F               	btfss	15,0	;volatile
  3163  000E  2813               	goto	i1l244
  3164                           
  3165                           ;interrupt_manager.c: 55: {
  3166                           ;interrupt_manager.c: 56: I2C1_ISR();
  3167  000F  3185  25E8  3180   	fcall	_I2C1_ISR
  3168                           
  3169                           ;interrupt_manager.c: 57: }
  3170  0012  2825               	goto	i1l250
  3171  0013                     i1l244:	
  3172                           
  3173                           ;interrupt_manager.c: 58: else if(INTCONbits.PEIE == 1 && PIE3bits.TX1IE == 1 && PIR3bit
      +                          s.TX1IF == 1)
  3174  0013  1F0B               	btfss	11,6	;volatile
  3175  0014  281D               	goto	i1l246
  3176  0015  014E               	movlb	14	; select bank14
  3177  0016  1A19               	btfsc	25,4	;volatile
  3178  0017  1E0F               	btfss	15,4	;volatile
  3179  0018  281D               	goto	i1l246
  3180                           
  3181                           ;interrupt_manager.c: 59: {
  3182                           ;interrupt_manager.c: 60: EUSART1_Transmit_ISR();
  3183  0019  3186  26B8  3180   	fcall	_EUSART1_Transmit_ISR
  3184                           
  3185                           ;interrupt_manager.c: 61: }
  3186  001C  2825               	goto	i1l250
  3187  001D                     i1l246:	
  3188                           
  3189                           ;interrupt_manager.c: 62: else if(INTCONbits.PEIE == 1 && PIE3bits.RC1IE == 1 && PIR3bit
      +                          s.RC1IF == 1)
  3190  001D  1F0B               	btfss	11,6	;volatile
  3191  001E  2825               	goto	i1l250
  3192  001F  014E               	movlb	14	; select bank14
  3193  0020  1A99               	btfsc	25,5	;volatile
  3194  0021  1E8F               	btfss	15,5	;volatile
  3195  0022  2825               	goto	i1l250
  3196                           
  3197                           ;interrupt_manager.c: 63: {
  3198                           ;interrupt_manager.c: 64: EUSART1_Receive_ISR();
  3199  0023  3186  2623         	fcall	_EUSART1_Receive_ISR
  3200  0025                     i1l250:	
  3201                           ;interrupt_manager.c: 66: else
  3202                           ;interrupt_manager.c: 67: {
  3203                           
  3204                           ;interrupt_manager.c: 65: }
  3205                           
  3206  0025  0140               	movlb	0	; select bank0
  3207  0026  086A               	movf	??_INTERRUPT_InterruptManager,w
  3208  0027  00FF               	movwf	127
  3209  0028  107E               	bcf	126,0	;clear compiler interrupt flag (level 1)
  3210  0029  0009               	retfie
  3211  002A                     __end_of_INTERRUPT_InterruptManager:	
  3212                           
  3213                           	psect	text7
  3214  05E8                     __ptext7:	
  3215 ;; *************** function _I2C1_ISR *****************
  3216 ;; Defined at:
  3217 ;;		line 66 in file "mcc_generated_files/i2c1.c"
  3218 ;; Parameters:    Size  Location     Type
  3219 ;;		None
  3220 ;; Auto vars:     Size  Location     Type
  3221 ;;  i2c_data        1   73[BANK0 ] unsigned char 
  3222 ;; Return value:  Size  Location     Type
  3223 ;;                  1    wreg      void 
  3224 ;; Registers used:
  3225 ;;		wreg, fsr0l, fsr0h, fsr1l, fsr1h, status,2, status,0, pclath, cstack
  3226 ;; Tracked objects:
  3227 ;;		On entry : 0/0
  3228 ;;		On exit  : 0/0
  3229 ;;		Unchanged: 0/0
  3230 ;; Data sizes:     COMMON   BANK0   BANK1   BANK2   BANK3   BANK4   BANK5   BANK6   BANK7   BANK8   BANK9  BANK10  BANK1
      +1  BANK12
  3231 ;;      Params:         0       0       0       0       0       0       0       0       0       0       0       0       
      +0       0
  3232 ;;      Locals:         0       1       0       0       0       0       0       0       0       0       0       0       
      +0       0
  3233 ;;      Temps:          0       1       0       0       0       0       0       0       0       0       0       0       
      +0       0
  3234 ;;      Totals:         0       2       0       0       0       0       0       0       0       0       0       0       
      +0       0
  3235 ;;Total ram usage:        2 bytes
  3236 ;; Hardware stack levels used:    1
  3237 ;; Hardware stack levels required when called:    3
  3238 ;; This function calls:
  3239 ;;		_I2C1_StatusCallback
  3240 ;; This function is called by:
  3241 ;;		_INTERRUPT_InterruptManager
  3242 ;; This function uses a non-reentrant model
  3243 ;;
  3244                           
  3245                           
  3246                           ;psect for function _I2C1_ISR
  3247  05E8                     _I2C1_ISR:	
  3248                           
  3249                           ;i2c1.c: 68: uint8_t i2c_data = 0x55;
  3250                           
  3251                           ;incstack = 0
  3252                           ; Regs used in _I2C1_ISR: [wreg-fsr1h+status,2+status,0+pclath+cstack]
  3253  05E8  3055               	movlw	85
  3254  05E9  0140               	movlb	0	; select bank0
  3255  05EA  00E8               	movwf	??_I2C1_ISR
  3256  05EB  0868               	movf	??_I2C1_ISR,w
  3257  05EC  00E9               	movwf	I2C1_ISR@i2c_data
  3258                           
  3259                           ;i2c1.c: 71: PIR3bits.SSP1IF = 0;
  3260  05ED  014E               	movlb	14	; select bank14
  3261  05EE  100F               	bcf	15,0	;volatile
  3262                           
  3263                           ;i2c1.c: 72: i2c_data = SSP1BUF;
  3264  05EF  0143               	movlb	3	; select bank3
  3265  05F0  080C               	movf	12,w	;volatile
  3266  05F1  0140               	movlb	0	; select bank0
  3267  05F2  00E8               	movwf	??_I2C1_ISR
  3268  05F3  0868               	movf	??_I2C1_ISR,w
  3269  05F4  00E9               	movwf	I2C1_ISR@i2c_data
  3270                           
  3271                           ;i2c1.c: 73: if(1 == SSP1STATbits.R_nW) {
  3272  05F5  0143               	movlb	3	; select bank3
  3273  05F6  1D0F               	btfss	15,2	;volatile
  3274  05F7  2E09               	goto	i1l332
  3275                           
  3276                           ;i2c1.c: 74: if((1 == SSP1STATbits.D_nA) && (1 == SSP1CON2bits.ACKSTAT))
  3277  05F8  1A8F               	btfsc	15,5	;volatile
  3278  05F9  1F11               	btfss	17,6	;volatile
  3279  05FA  2E02               	goto	i1l1931
  3280                           
  3281                           ;i2c1.c: 75: {
  3282                           ;i2c1.c: 77: I2C1_StatusCallback(I2C1_SLAVE_READ_COMPLETED, i2c_data);
  3283  05FB  0140               	movlb	0	; select bank0
  3284  05FC  0869               	movf	I2C1_ISR@i2c_data,w
  3285  05FD  00E8               	movwf	??_I2C1_ISR
  3286  05FE  0868               	movf	??_I2C1_ISR,w
  3287  05FF  00D5               	movwf	I2C1_StatusCallback@dataI2C
  3288  0600  3003               	movlw	3
  3289  0601  2E1E               	goto	L1
  3290  0602                     i1l1931:	
  3291                           ;i2c1.c: 78: }
  3292                           
  3293                           
  3294                           ;i2c1.c: 79: else
  3295                           ;i2c1.c: 80: {
  3296                           ;i2c1.c: 82: I2C1_StatusCallback(I2C1_SLAVE_READ_REQUEST, i2c_data);
  3297  0602  0140               	movlb	0	; select bank0
  3298  0603  0869               	movf	I2C1_ISR@i2c_data,w
  3299  0604  00E8               	movwf	??_I2C1_ISR
  3300  0605  0868               	movf	??_I2C1_ISR,w
  3301  0606  00D5               	movwf	I2C1_StatusCallback@dataI2C
  3302  0607  3001               	movlw	1
  3303  0608  2E1E               	goto	L1
  3304  0609                     i1l332:	
  3305                           ;i2c1.c: 83: }
  3306                           ;i2c1.c: 84: }
  3307                           
  3308                           
  3309                           ;i2c1.c: 85: else if(0 == SSP1STATbits.D_nA)
  3310  0609  1A8F               	btfsc	15,5	;volatile
  3311  060A  2E12               	goto	i1l1935
  3312                           
  3313                           ;i2c1.c: 86: {
  3314                           ;i2c1.c: 89: I2C1_StatusCallback(I2C1_SLAVE_WRITE_REQUEST, i2c_data);
  3315  060B  0140               	movlb	0	; select bank0
  3316  060C  0869               	movf	I2C1_ISR@i2c_data,w
  3317  060D  00E8               	movwf	??_I2C1_ISR
  3318  060E  0868               	movf	??_I2C1_ISR,w
  3319  060F  00D5               	movwf	I2C1_StatusCallback@dataI2C
  3320  0610  3000               	movlw	0
  3321  0611  2E1E               	goto	L1
  3322  0612                     i1l1935:	
  3323                           ;i2c1.c: 90: }
  3324                           
  3325                           
  3326                           ;i2c1.c: 91: else
  3327                           ;i2c1.c: 92: {
  3328                           ;i2c1.c: 93: I2C1_slaveWriteData = i2c_data;
  3329  0612  0140               	movlb	0	; select bank0
  3330  0613  0869               	movf	I2C1_ISR@i2c_data,w
  3331  0614  00E8               	movwf	??_I2C1_ISR
  3332  0615  0868               	movf	??_I2C1_ISR,w
  3333  0616  0141               	movlb	1	; select bank1
  3334  0617  00EA               	movwf	_I2C1_slaveWriteData^(0+128)	;volatile
  3335                           
  3336                           ;i2c1.c: 94: I2C1_StatusCallback(I2C1_SLAVE_WRITE_COMPLETED, i2c_data);
  3337  0618  0140               	movlb	0	; select bank0
  3338  0619  0869               	movf	I2C1_ISR@i2c_data,w
  3339  061A  00E8               	movwf	??_I2C1_ISR
  3340  061B  0868               	movf	??_I2C1_ISR,w
  3341  061C  00D5               	movwf	I2C1_StatusCallback@dataI2C
  3342  061D  3002               	movlw	2
  3343  061E                     L1:	
  3344  061E  3180  2049         	fcall	_I2C1_StatusCallback
  3345                           
  3346                           ;i2c1.c: 96: }
  3347                           ;i2c1.c: 98: SSP1CON1bits.CKP = 1;
  3348  0620  0143               	movlb	3	; select bank3
  3349  0621  1610               	bsf	16,4	;volatile
  3350  0622  0008               	return
  3351  0623                     __end_of_I2C1_ISR:	
  3352                           
  3353                           	psect	text8
  3354  0049                     __ptext8:	
  3355 ;; *************** function _I2C1_StatusCallback *****************
  3356 ;; Defined at:
  3357 ;;		line 104 in file "mcc_generated_files/i2c1.c"
  3358 ;; Parameters:    Size  Location     Type
  3359 ;;  i2c_bus_stat    1    wreg     enum E8788
  3360 ;;  dataI2C         1   53[BANK0 ] unsigned char 
  3361 ;; Auto vars:     Size  Location     Type
  3362 ;;  i2c_bus_stat    1   64[BANK0 ] enum E8788
  3363 ;;  R2              3   65[BANK0 ] float 
  3364 ;;  R1              3   58[BANK0 ] float 
  3365 ;;  val             2   70[BANK0 ] int 
  3366 ;;  val16           2   68[BANK0 ] int 
  3367 ;;  SensorValue_    2    0        unsigned int 
  3368 ;; Return value:  Size  Location     Type
  3369 ;;                  1    wreg      void 
  3370 ;; Registers used:
  3371 ;;		wreg, fsr0l, fsr0h, fsr1l, fsr1h, status,2, status,0, pclath, cstack
  3372 ;; Tracked objects:
  3373 ;;		On entry : 0/0
  3374 ;;		On exit  : 0/0
  3375 ;;		Unchanged: 0/0
  3376 ;; Data sizes:     COMMON   BANK0   BANK1   BANK2   BANK3   BANK4   BANK5   BANK6   BANK7   BANK8   BANK9  BANK10  BANK1
      +1  BANK12
  3377 ;;      Params:         0       1       0       0       0       0       0       0       0       0       0       0       
      +0       0
  3378 ;;      Locals:         0      14       0       0       0       0       0       0       0       0       0       0       
      +0       0
  3379 ;;      Temps:          0       4       0       0       0       0       0       0       0       0       0       0       
      +0       0
  3380 ;;      Totals:         0      19       0       0       0       0       0       0       0       0       0       0       
      +0       0
  3381 ;;Total ram usage:       19 bytes
  3382 ;; Hardware stack levels used:    1
  3383 ;; Hardware stack levels required when called:    2
  3384 ;; This function calls:
  3385 ;;		_EUSART1_Write
  3386 ;;		___awtoft
  3387 ;;		___ftadd
  3388 ;;		___ftdiv
  3389 ;;		___ftmul
  3390 ;;		___fttol
  3391 ;;		_putinrVAR
  3392 ;;		_torVAR
  3393 ;; This function is called by:
  3394 ;;		_I2C1_ISR
  3395 ;; This function uses a non-reentrant model
  3396 ;;
  3397                           
  3398                           
  3399                           ;psect for function _I2C1_StatusCallback
  3400  0049                     _I2C1_StatusCallback:	
  3401                           
  3402                           ;incstack = 0
  3403                           ; Regs used in _I2C1_StatusCallback: [wreg-fsr1h+status,2+status,0+pclath+cstack]
  3404                           ;I2C1_StatusCallback@i2c_bus_state stored from wreg
  3405  0049  0140               	movlb	0	; select bank0
  3406  004A  00E0               	movwf	I2C1_StatusCallback@i2c_bus_state
  3407                           
  3408                           ;i2c1.c: 105: uint16_t SensorValue_16;
  3409                           ;i2c1.c: 106: switch (i2c_bus_state) {
  3410  004B  2A56               	goto	i1l1887
  3411  004C                     i1l1763:	
  3412                           ;i2c1.c: 110: case I2C1_SLAVE_WRITE_COMPLETED:
  3413                           
  3414                           ;i2c1.c: 108: break;
  3415                           
  3416                           ;i2c1.c: 107: case I2C1_SLAVE_WRITE_REQUEST:
  3417                           
  3418                           
  3419                           ;i2c1.c: 111: OBC_LastCMD = dataI2C;
  3420  004C  0855               	movf	I2C1_StatusCallback@dataI2C,w
  3421  004D  00D6               	movwf	??_I2C1_StatusCallback
  3422  004E  0856               	movf	??_I2C1_StatusCallback,w
  3423  004F  00EB               	movwf	_OBC_LastCMD
  3424                           
  3425                           ;i2c1.c: 112: switch (OBC_LastCMD){
  3426  0050  29DF               	goto	i1l1857
  3427  0051                     i1l1765:	
  3428                           ;i2c1.c: 113: case 0xFF:
  3429                           
  3430                           
  3431                           ;i2c1.c: 115: torVAR(2019);
  3432  0051  3060               	movlw	96
  3433  0052  00F0               	movwf	torVAR@data
  3434  0053  30FC               	movlw	252
  3435  0054  00F1               	movwf	torVAR@data+1
  3436  0055  3044               	movlw	68
  3437  0056  00F2               	movwf	torVAR@data+2
  3438  0057  3186  26F4         	fcall	_torVAR
  3439                           
  3440                           ;i2c1.c: 117: rVAR_u = 0xFF;
  3441  0059  30FF               	movlw	255
  3442  005A  0140               	movlb	0	; select bank0
  3443  005B  00D6               	movwf	??_I2C1_StatusCallback
  3444  005C  0856               	movf	??_I2C1_StatusCallback,w
  3445  005D  0141               	movlb	1	; select bank1
  3446  005E  00E7               	movwf	_rVAR_u^(0+128)
  3447                           
  3448                           ;i2c1.c: 118: break;
  3449  005F  0008               	return
  3450  0060                     i1l1769:	
  3451                           ;i2c1.c: 120: case 0x20:
  3452                           
  3453                           
  3454                           ;i2c1.c: 121: rVAR_u = 0x20;
  3455  0060  3020               	movlw	32
  3456  0061  0140               	movlb	0	; select bank0
  3457  0062  00D6               	movwf	??_I2C1_StatusCallback
  3458  0063  0856               	movf	??_I2C1_StatusCallback,w
  3459  0064  0141               	movlb	1	; select bank1
  3460  0065  00E7               	movwf	_rVAR_u^(0+128)
  3461                           
  3462                           ;i2c1.c: 122: int16_t val = 1;
  3463  0066  3001               	movlw	1
  3464  0067  0140               	movlb	0	; select bank0
  3465  0068  00E6               	movwf	I2C1_StatusCallback@val
  3466  0069  3000               	movlw	0
  3467  006A  00E7               	movwf	I2C1_StatusCallback@val+1
  3468                           
  3469                           ;i2c1.c: 123: rVAR[1] = ((int) val & 0xFFFF) >> 14;
  3470  006B  0867               	movf	I2C1_StatusCallback@val+1,w
  3471  006C  00D7               	movwf	??_I2C1_StatusCallback+1
  3472  006D  0866               	movf	I2C1_StatusCallback@val,w
  3473  006E  00D6               	movwf	??_I2C1_StatusCallback
  3474  006F  300E               	movlw	14
  3475  0070                     u168_25:	
  3476  0070  36D7               	lsrf	??_I2C1_StatusCallback+1,f
  3477  0071  0CD6               	rrf	??_I2C1_StatusCallback,f
  3478  0072  0B89               	decfsz	9,f
  3479  0073  2870               	goto	u168_25
  3480  0074  0856               	movf	??_I2C1_StatusCallback,w
  3481  0075  00D8               	movwf	??_I2C1_StatusCallback+2
  3482  0076  0858               	movf	??_I2C1_StatusCallback+2,w
  3483  0077  0141               	movlb	1	; select bank1
  3484  0078  00E1               	movwf	(_rVAR^(0+128)+1)
  3485                           
  3486                           ;i2c1.c: 124: rVAR[0] = ( (int) val & 0x3FFF) >> 6;
  3487  0079  0140               	movlb	0	; select bank0
  3488  007A  0867               	movf	I2C1_StatusCallback@val+1,w
  3489  007B  00D7               	movwf	??_I2C1_StatusCallback+1
  3490  007C  0866               	movf	I2C1_StatusCallback@val,w
  3491  007D  00D6               	movwf	??_I2C1_StatusCallback
  3492  007E  3006               	movlw	6
  3493  007F  00D8               	movwf	??_I2C1_StatusCallback+2
  3494  0080                     u169_25:	
  3495  0080  0D57               	rlf	??_I2C1_StatusCallback+1,w
  3496  0081  0CD7               	rrf	??_I2C1_StatusCallback+1,f
  3497  0082  0CD6               	rrf	??_I2C1_StatusCallback,f
  3498  0083  0BD8               	decfsz	??_I2C1_StatusCallback+2,f
  3499  0084  2880               	goto	u169_25
  3500  0085  0856               	movf	??_I2C1_StatusCallback,w
  3501  0086  00D9               	movwf	??_I2C1_StatusCallback+3
  3502  0087  0859               	movf	??_I2C1_StatusCallback+3,w
  3503  0088  0141               	movlb	1	; select bank1
  3504  0089  00E0               	movwf	_rVAR^(0+128)
  3505                           
  3506                           ;i2c1.c: 125: break;
  3507  008A  0008               	return
  3508  008B                     i1l1775:	
  3509                           ;i2c1.c: 127: case 0x23:
  3510                           
  3511                           
  3512                           ;i2c1.c: 128: rVAR_u = 0x23;
  3513  008B  3023               	movlw	35
  3514  008C  0140               	movlb	0	; select bank0
  3515  008D  00D6               	movwf	??_I2C1_StatusCallback
  3516  008E  0856               	movf	??_I2C1_StatusCallback,w
  3517  008F  0141               	movlb	1	; select bank1
  3518  0090  00E7               	movwf	_rVAR_u^(0+128)
  3519                           
  3520                           ;i2c1.c: 129: int16_t val = 1;
  3521  0091  3001               	movlw	1
  3522  0092  0140               	movlb	0	; select bank0
  3523  0093  00E6               	movwf	I2C1_StatusCallback@val
  3524  0094  3000               	movlw	0
  3525  0095  00E7               	movwf	I2C1_StatusCallback@val+1
  3526                           
  3527                           ;i2c1.c: 130: val = (val & 0xFFC0) >> 6;
  3528  0096  0867               	movf	I2C1_StatusCallback@val+1,w
  3529  0097  00D7               	movwf	??_I2C1_StatusCallback+1
  3530  0098  0866               	movf	I2C1_StatusCallback@val,w
  3531  0099  00D6               	movwf	??_I2C1_StatusCallback
  3532  009A  3006               	movlw	6
  3533  009B                     u170_25:	
  3534  009B  36D7               	lsrf	??_I2C1_StatusCallback+1,f
  3535  009C  0CD6               	rrf	??_I2C1_StatusCallback,f
  3536  009D  0B89               	decfsz	9,f
  3537  009E  289B               	goto	u170_25
  3538  009F  30FF               	movlw	255
  3539  00A0  0556               	andwf	??_I2C1_StatusCallback,w
  3540  00A1  00E6               	movwf	I2C1_StatusCallback@val
  3541  00A2  3003               	movlw	3
  3542  00A3  0557               	andwf	??_I2C1_StatusCallback+1,w
  3543  00A4  00E7               	movwf	I2C1_StatusCallback@val+1
  3544                           
  3545                           ;i2c1.c: 132: float R1 = 4.7, R2 = 6.8;
  3546  00A5  3066               	movlw	102
  3547  00A6  00DA               	movwf	I2C1_StatusCallback@R1
  3548  00A7  3096               	movlw	150
  3549  00A8  00DB               	movwf	I2C1_StatusCallback@R1+1
  3550  00A9  3040               	movlw	64
  3551  00AA  00DC               	movwf	I2C1_StatusCallback@R1+2
  3552  00AB  309A               	movlw	154
  3553  00AC  00E1               	movwf	I2C1_StatusCallback@R2
  3554  00AD  30D9               	movlw	217
  3555  00AE  00E2               	movwf	I2C1_StatusCallback@R2+1
  3556  00AF  3040               	movlw	64
  3557  00B0  00E3               	movwf	I2C1_StatusCallback@R2+2
  3558                           
  3559                           ;i2c1.c: 133: int16_t val16 = (float) ((val/1023.00)*3.33)*((R1+R2)/R2) * ((32768.00)/5.
      +                          5) ;
  3560  00B1  0867               	movf	I2C1_StatusCallback@val+1,w
  3561  00B2  00F9               	movwf	___awtoft@c+1
  3562  00B3  0866               	movf	I2C1_StatusCallback@val,w
  3563  00B4  00F8               	movwf	___awtoft@c
  3564  00B5  3186  2698  3180   	fcall	___awtoft
  3565  00B8  0878               	movf	?___awtoft,w
  3566  00B9  0140               	movlb	0	; select bank0
  3567  00BA  00AA               	movwf	___ftdiv@f1
  3568  00BB  0879               	movf	?___awtoft+1,w
  3569  00BC  00AB               	movwf	___ftdiv@f1+1
  3570  00BD  087A               	movf	?___awtoft+2,w
  3571  00BE  00AC               	movwf	___ftdiv@f1+2
  3572  00BF  30C0               	movlw	192
  3573  00C0  00A7               	movwf	___ftdiv@f2
  3574  00C1  307F               	movlw	127
  3575  00C2  00A8               	movwf	___ftdiv@f2+1
  3576  00C3  3044               	movlw	68
  3577  00C4  00A9               	movwf	___ftdiv@f2+2
  3578  00C5  3184  240E  3180   	fcall	___ftdiv
  3579  00C8  0140               	movlb	0	; select bank0
  3580  00C9  0827               	movf	?___ftdiv,w
  3581  00CA  00BA               	movwf	___ftmul@f2
  3582  00CB  0828               	movf	?___ftdiv+1,w
  3583  00CC  00BB               	movwf	___ftmul@f2+1
  3584  00CD  0829               	movf	?___ftdiv+2,w
  3585  00CE  00BC               	movwf	___ftmul@f2+2
  3586  00CF  085A               	movf	I2C1_StatusCallback@R1,w
  3587  00D0  00FB               	movwf	___ftadd@f2
  3588  00D1  085B               	movf	I2C1_StatusCallback@R1+1,w
  3589  00D2  00FC               	movwf	___ftadd@f2+1
  3590  00D3  085C               	movf	I2C1_StatusCallback@R1+2,w
  3591  00D4  00FD               	movwf	___ftadd@f2+2
  3592  00D5  0861               	movf	I2C1_StatusCallback@R2,w
  3593  00D6  00F8               	movwf	___ftadd@f1
  3594  00D7  0862               	movf	I2C1_StatusCallback@R2+1,w
  3595  00D8  00F9               	movwf	___ftadd@f1+1
  3596  00D9  0863               	movf	I2C1_StatusCallback@R2+2,w
  3597  00DA  00FA               	movwf	___ftadd@f1+2
  3598  00DB  3182  2265  3180   	fcall	___ftadd
  3599  00DE  0878               	movf	?___ftadd,w
  3600  00DF  0140               	movlb	0	; select bank0
  3601  00E0  00AA               	movwf	___ftdiv@f1
  3602  00E1  0879               	movf	?___ftadd+1,w
  3603  00E2  00AB               	movwf	___ftdiv@f1+1
  3604  00E3  087A               	movf	?___ftadd+2,w
  3605  00E4  00AC               	movwf	___ftdiv@f1+2
  3606  00E5  0861               	movf	I2C1_StatusCallback@R2,w
  3607  00E6  00A7               	movwf	___ftdiv@f2
  3608  00E7  0862               	movf	I2C1_StatusCallback@R2+1,w
  3609  00E8  00A8               	movwf	___ftdiv@f2+1
  3610  00E9  0863               	movf	I2C1_StatusCallback@R2+2,w
  3611  00EA  00A9               	movwf	___ftdiv@f2+2
  3612  00EB  3184  240E  3180   	fcall	___ftdiv
  3613  00EE  0140               	movlb	0	; select bank0
  3614  00EF  0827               	movf	?___ftdiv,w
  3615  00F0  00B7               	movwf	___ftmul@f1
  3616  00F1  0828               	movf	?___ftdiv+1,w
  3617  00F2  00B8               	movwf	___ftmul@f1+1
  3618  00F3  0829               	movf	?___ftdiv+2,w
  3619  00F4  00B9               	movwf	___ftmul@f1+2
  3620  00F5  3183  235A  3180   	fcall	___ftmul
  3621  00F8  0140               	movlb	0	; select bank0
  3622  00F9  0837               	movf	?___ftmul,w
  3623  00FA  00DD               	movwf	_I2C1_StatusCallback$1148
  3624  00FB  0838               	movf	?___ftmul+1,w
  3625  00FC  00DE               	movwf	_I2C1_StatusCallback$1148+1
  3626  00FD  0839               	movf	?___ftmul+2,w
  3627  00FE  00DF               	movwf	_I2C1_StatusCallback$1148+2
  3628                           
  3629                           ;i2c1.c: 133: int16_t val16 = (float) ((val/1023.00)*3.33)*((R1+R2)/R2) * ((32768.00)/5.
      +                          5) ;
  3630  00FF  085D               	movf	_I2C1_StatusCallback$1148,w
  3631  0100  00BA               	movwf	___ftmul@f2
  3632  0101  085E               	movf	_I2C1_StatusCallback$1148+1,w
  3633  0102  00BB               	movwf	___ftmul@f2+1
  3634  0103  085F               	movf	_I2C1_StatusCallback$1148+2,w
  3635  0104  00BC               	movwf	___ftmul@f2+2
  3636  0105  30FF               	movlw	255
  3637  0106  00B7               	movwf	___ftmul@f1
  3638  0107  309A               	movlw	154
  3639  0108  00B8               	movwf	___ftmul@f1+1
  3640  0109  3046               	movlw	70
  3641  010A  00B9               	movwf	___ftmul@f1+2
  3642  010B  3183  235A  3180   	fcall	___ftmul
  3643  010E  0140               	movlb	0	; select bank0
  3644  010F  0837               	movf	?___ftmul,w
  3645  0110  00C7               	movwf	___fttol@f1
  3646  0111  0838               	movf	?___ftmul+1,w
  3647  0112  00C8               	movwf	___fttol@f1+1
  3648  0113  0839               	movf	?___ftmul+2,w
  3649  0114  00C9               	movwf	___fttol@f1+2
  3650  0115  3184  24B7         	fcall	___fttol
  3651  0117  0140               	movlb	0	; select bank0
  3652  0118  0848               	movf	?___fttol+1,w
  3653  0119  00E5               	movwf	I2C1_StatusCallback@val16+1
  3654  011A  0847               	movf	?___fttol,w
  3655  011B  00E4               	movwf	I2C1_StatusCallback@val16
  3656                           
  3657                           ;i2c1.c: 134: rVAR[1] = (int) val16 >> 8;
  3658  011C  0865               	movf	I2C1_StatusCallback@val16+1,w
  3659  011D  00D6               	movwf	??_I2C1_StatusCallback
  3660  011E  0856               	movf	??_I2C1_StatusCallback,w
  3661  011F  0141               	movlb	1	; select bank1
  3662  0120  00E1               	movwf	(_rVAR^(0+128)+1)
  3663                           
  3664                           ;i2c1.c: 135: rVAR[0] = (int) val16;
  3665  0121  0140               	movlb	0	; select bank0
  3666  0122  0864               	movf	I2C1_StatusCallback@val16,w
  3667  0123  00D6               	movwf	??_I2C1_StatusCallback
  3668  0124  0856               	movf	??_I2C1_StatusCallback,w
  3669  0125  0141               	movlb	1	; select bank1
  3670  0126  00E0               	movwf	_rVAR^(0+128)
  3671                           
  3672                           ;i2c1.c: 136: break;
  3673  0127  0008               	return
  3674  0128                     i1l1791:	
  3675                           ;i2c1.c: 138: case 0x24:
  3676                           
  3677                           
  3678                           ;i2c1.c: 139: wVAR_u = 0x24;
  3679  0128  3024               	movlw	36
  3680  0129  0140               	movlb	0	; select bank0
  3681  012A  00D6               	movwf	??_I2C1_StatusCallback
  3682  012B  0856               	movf	??_I2C1_StatusCallback,w
  3683  012C  0141               	movlb	1	; select bank1
  3684  012D  00E6               	movwf	_wVAR_u^(0+128)
  3685                           
  3686                           ;i2c1.c: 140: WriteCMD = 1;
  3687  012E  01E5               	clrf	_WriteCMD^(0+128)
  3688  012F  0AE5               	incf	_WriteCMD^(0+128),f
  3689                           
  3690                           ;i2c1.c: 141: break;
  3691  0130  0008               	return
  3692  0131                     i1l1795:	
  3693                           ;i2c1.c: 144: case 0x52:
  3694                           
  3695                           
  3696                           ;i2c1.c: 145: LastSerialCMD = 0x52;
  3697  0131  3052               	movlw	82
  3698  0132  0140               	movlb	0	; select bank0
  3699  0133  00D6               	movwf	??_I2C1_StatusCallback
  3700  0134  0856               	movf	??_I2C1_StatusCallback,w
  3701  0135  00EF               	movwf	_LastSerialCMD
  3702                           
  3703                           ;i2c1.c: 146: rVAR_u = 0x52;
  3704  0136  3052               	movlw	82
  3705  0137  00D6               	movwf	??_I2C1_StatusCallback
  3706  0138  0856               	movf	??_I2C1_StatusCallback,w
  3707  0139  0141               	movlb	1	; select bank1
  3708  013A  00E7               	movwf	_rVAR_u^(0+128)
  3709                           
  3710                           ;i2c1.c: 147: SERIAL_BUFFcount = 0;
  3711  013B  01E4               	clrf	_SERIAL_BUFFcount^(0+128)
  3712                           
  3713                           ;i2c1.c: 148: EUSART1_Write(LastSerialCMD);
  3714  013C  0140               	movlb	0	; select bank0
  3715  013D  086F               	movf	_LastSerialCMD,w
  3716  013E  3186  2652         	fcall	_EUSART1_Write
  3717                           
  3718                           ;i2c1.c: 149: break;
  3719  0140  0008               	return
  3720  0141                     i1l1801:	
  3721                           ;i2c1.c: 150: case 0x81:
  3722                           
  3723                           
  3724                           ;i2c1.c: 151: LastSerialCMD = 0x81;
  3725  0141  3081               	movlw	129
  3726  0142  0140               	movlb	0	; select bank0
  3727  0143  00D6               	movwf	??_I2C1_StatusCallback
  3728  0144  0856               	movf	??_I2C1_StatusCallback,w
  3729  0145  00EF               	movwf	_LastSerialCMD
  3730                           
  3731                           ;i2c1.c: 152: rVAR_u = 0x81;
  3732  0146  3081               	movlw	129
  3733  0147  00D6               	movwf	??_I2C1_StatusCallback
  3734  0148  0856               	movf	??_I2C1_StatusCallback,w
  3735  0149  0141               	movlb	1	; select bank1
  3736  014A  00E7               	movwf	_rVAR_u^(0+128)
  3737                           
  3738                           ;i2c1.c: 153: putinrVAR();
  3739  014B  3186  2676         	fcall	_putinrVAR
  3740                           
  3741                           ;i2c1.c: 154: break;
  3742  014D  0008               	return
  3743  014E                     i1l1805:	
  3744                           ;i2c1.c: 155: case 0x62:
  3745                           
  3746                           
  3747                           ;i2c1.c: 156: LastSerialCMD = 0x62;
  3748  014E  3062               	movlw	98
  3749  014F  0140               	movlb	0	; select bank0
  3750  0150  00D6               	movwf	??_I2C1_StatusCallback
  3751  0151  0856               	movf	??_I2C1_StatusCallback,w
  3752  0152  00EF               	movwf	_LastSerialCMD
  3753                           
  3754                           ;i2c1.c: 157: rVAR_u = 0x62;
  3755  0153  3062               	movlw	98
  3756  0154  00D6               	movwf	??_I2C1_StatusCallback
  3757  0155  0856               	movf	??_I2C1_StatusCallback,w
  3758  0156  0141               	movlb	1	; select bank1
  3759  0157  00E7               	movwf	_rVAR_u^(0+128)
  3760                           
  3761                           ;i2c1.c: 158: SERIAL_BUFFcount = 0;
  3762  0158  01E4               	clrf	_SERIAL_BUFFcount^(0+128)
  3763                           
  3764                           ;i2c1.c: 159: EUSART1_Write(LastSerialCMD);
  3765  0159  0140               	movlb	0	; select bank0
  3766  015A  086F               	movf	_LastSerialCMD,w
  3767  015B  3186  2652         	fcall	_EUSART1_Write
  3768                           
  3769                           ;i2c1.c: 160: break;
  3770  015D  0008               	return
  3771  015E                     i1l1811:	
  3772                           ;i2c1.c: 161: case 0x91:
  3773                           
  3774                           
  3775                           ;i2c1.c: 162: LastSerialCMD = 0x91;
  3776  015E  3091               	movlw	145
  3777  015F  0140               	movlb	0	; select bank0
  3778  0160  00D6               	movwf	??_I2C1_StatusCallback
  3779  0161  0856               	movf	??_I2C1_StatusCallback,w
  3780  0162  00EF               	movwf	_LastSerialCMD
  3781                           
  3782                           ;i2c1.c: 163: rVAR_u = 0x91;
  3783  0163  3091               	movlw	145
  3784  0164  00D6               	movwf	??_I2C1_StatusCallback
  3785  0165  0856               	movf	??_I2C1_StatusCallback,w
  3786  0166  0141               	movlb	1	; select bank1
  3787  0167  00E7               	movwf	_rVAR_u^(0+128)
  3788                           
  3789                           ;i2c1.c: 164: putinrVAR();
  3790  0168  3186  2676         	fcall	_putinrVAR
  3791                           
  3792                           ;i2c1.c: 165: break;
  3793  016A  0008               	return
  3794  016B                     i1l1815:	
  3795                           ;i2c1.c: 166: case 0x72:
  3796                           
  3797                           
  3798                           ;i2c1.c: 167: LastSerialCMD = 0x72;
  3799  016B  3072               	movlw	114
  3800  016C  0140               	movlb	0	; select bank0
  3801  016D  00D6               	movwf	??_I2C1_StatusCallback
  3802  016E  0856               	movf	??_I2C1_StatusCallback,w
  3803  016F  00EF               	movwf	_LastSerialCMD
  3804                           
  3805                           ;i2c1.c: 168: rVAR_u = 0x72;
  3806  0170  3072               	movlw	114
  3807  0171  00D6               	movwf	??_I2C1_StatusCallback
  3808  0172  0856               	movf	??_I2C1_StatusCallback,w
  3809  0173  0141               	movlb	1	; select bank1
  3810  0174  00E7               	movwf	_rVAR_u^(0+128)
  3811                           
  3812                           ;i2c1.c: 169: SERIAL_BUFFcount = 0;
  3813  0175  01E4               	clrf	_SERIAL_BUFFcount^(0+128)
  3814                           
  3815                           ;i2c1.c: 170: EUSART1_Write(LastSerialCMD);
  3816  0176  0140               	movlb	0	; select bank0
  3817  0177  086F               	movf	_LastSerialCMD,w
  3818  0178  3186  2652         	fcall	_EUSART1_Write
  3819                           
  3820                           ;i2c1.c: 171: break;
  3821  017A  0008               	return
  3822  017B                     i1l1821:	
  3823                           ;i2c1.c: 172: case 0xA1:
  3824                           
  3825                           
  3826                           ;i2c1.c: 173: LastSerialCMD = 0xA1;
  3827  017B  30A1               	movlw	161
  3828  017C  0140               	movlb	0	; select bank0
  3829  017D  00D6               	movwf	??_I2C1_StatusCallback
  3830  017E  0856               	movf	??_I2C1_StatusCallback,w
  3831  017F  00EF               	movwf	_LastSerialCMD
  3832                           
  3833                           ;i2c1.c: 174: rVAR_u = 0xA1;
  3834  0180  30A1               	movlw	161
  3835  0181  00D6               	movwf	??_I2C1_StatusCallback
  3836  0182  0856               	movf	??_I2C1_StatusCallback,w
  3837  0183  0141               	movlb	1	; select bank1
  3838  0184  00E7               	movwf	_rVAR_u^(0+128)
  3839                           
  3840                           ;i2c1.c: 175: putinrVAR();
  3841  0185  3186  2676         	fcall	_putinrVAR
  3842                           
  3843                           ;i2c1.c: 176: break;
  3844  0187  0008               	return
  3845  0188                     i1l1825:	
  3846                           ;i2c1.c: 180: case 0x82:
  3847                           
  3848                           
  3849                           ;i2c1.c: 181: LastSerialCMD = 0x82;
  3850  0188  3082               	movlw	130
  3851  0189  0140               	movlb	0	; select bank0
  3852  018A  00D6               	movwf	??_I2C1_StatusCallback
  3853  018B  0856               	movf	??_I2C1_StatusCallback,w
  3854  018C  00EF               	movwf	_LastSerialCMD
  3855                           
  3856                           ;i2c1.c: 182: rVAR_u = 0x82;
  3857  018D  3082               	movlw	130
  3858  018E  00D6               	movwf	??_I2C1_StatusCallback
  3859  018F  0856               	movf	??_I2C1_StatusCallback,w
  3860  0190  0141               	movlb	1	; select bank1
  3861  0191  00E7               	movwf	_rVAR_u^(0+128)
  3862                           
  3863                           ;i2c1.c: 183: SERIAL_BUFFcount = 0;
  3864  0192  01E4               	clrf	_SERIAL_BUFFcount^(0+128)
  3865                           
  3866                           ;i2c1.c: 184: EUSART1_Write(LastSerialCMD);
  3867  0193  0140               	movlb	0	; select bank0
  3868  0194  086F               	movf	_LastSerialCMD,w
  3869  0195  3186  2652         	fcall	_EUSART1_Write
  3870                           
  3871                           ;i2c1.c: 185: break;
  3872  0197  0008               	return
  3873  0198                     i1l1831:	
  3874                           ;i2c1.c: 186: case 0xB1:
  3875                           
  3876                           
  3877                           ;i2c1.c: 187: LastSerialCMD = 0xB1;
  3878  0198  30B1               	movlw	177
  3879  0199  0140               	movlb	0	; select bank0
  3880  019A  00D6               	movwf	??_I2C1_StatusCallback
  3881  019B  0856               	movf	??_I2C1_StatusCallback,w
  3882  019C  00EF               	movwf	_LastSerialCMD
  3883                           
  3884                           ;i2c1.c: 188: rVAR_u = 0xB1;
  3885  019D  30B1               	movlw	177
  3886  019E  00D6               	movwf	??_I2C1_StatusCallback
  3887  019F  0856               	movf	??_I2C1_StatusCallback,w
  3888  01A0  0141               	movlb	1	; select bank1
  3889  01A1  00E7               	movwf	_rVAR_u^(0+128)
  3890                           
  3891                           ;i2c1.c: 189: putinrVAR();
  3892  01A2  3186  2676         	fcall	_putinrVAR
  3893                           
  3894                           ;i2c1.c: 190: break;
  3895  01A4  0008               	return
  3896  01A5                     i1l1835:	
  3897                           ;i2c1.c: 191: case 0x92:
  3898                           
  3899                           
  3900                           ;i2c1.c: 192: LastSerialCMD = 0x92;
  3901  01A5  3092               	movlw	146
  3902  01A6  0140               	movlb	0	; select bank0
  3903  01A7  00D6               	movwf	??_I2C1_StatusCallback
  3904  01A8  0856               	movf	??_I2C1_StatusCallback,w
  3905  01A9  00EF               	movwf	_LastSerialCMD
  3906                           
  3907                           ;i2c1.c: 193: rVAR_u = 0x92;
  3908  01AA  3092               	movlw	146
  3909  01AB  00D6               	movwf	??_I2C1_StatusCallback
  3910  01AC  0856               	movf	??_I2C1_StatusCallback,w
  3911  01AD  0141               	movlb	1	; select bank1
  3912  01AE  00E7               	movwf	_rVAR_u^(0+128)
  3913                           
  3914                           ;i2c1.c: 194: SERIAL_BUFFcount = 0;
  3915  01AF  01E4               	clrf	_SERIAL_BUFFcount^(0+128)
  3916                           
  3917                           ;i2c1.c: 195: EUSART1_Write(LastSerialCMD);
  3918  01B0  0140               	movlb	0	; select bank0
  3919  01B1  086F               	movf	_LastSerialCMD,w
  3920  01B2  3186  2652         	fcall	_EUSART1_Write
  3921                           
  3922                           ;i2c1.c: 196: break;
  3923  01B4  0008               	return
  3924  01B5                     i1l1841:	
  3925                           ;i2c1.c: 197: case 0xC1:
  3926                           
  3927                           
  3928                           ;i2c1.c: 198: LastSerialCMD = 0xC1;
  3929  01B5  30C1               	movlw	193
  3930  01B6  0140               	movlb	0	; select bank0
  3931  01B7  00D6               	movwf	??_I2C1_StatusCallback
  3932  01B8  0856               	movf	??_I2C1_StatusCallback,w
  3933  01B9  00EF               	movwf	_LastSerialCMD
  3934                           
  3935                           ;i2c1.c: 199: rVAR_u = 0xC1;
  3936  01BA  30C1               	movlw	193
  3937  01BB  00D6               	movwf	??_I2C1_StatusCallback
  3938  01BC  0856               	movf	??_I2C1_StatusCallback,w
  3939  01BD  0141               	movlb	1	; select bank1
  3940  01BE  00E7               	movwf	_rVAR_u^(0+128)
  3941                           
  3942                           ;i2c1.c: 200: putinrVAR();
  3943  01BF  3186  2676         	fcall	_putinrVAR
  3944                           
  3945                           ;i2c1.c: 201: break;
  3946  01C1  0008               	return
  3947  01C2                     i1l1845:	
  3948                           ;i2c1.c: 203: case 0xA2:
  3949                           
  3950                           
  3951                           ;i2c1.c: 204: LastSerialCMD = 0xA2;
  3952  01C2  30A2               	movlw	162
  3953  01C3  0140               	movlb	0	; select bank0
  3954  01C4  00D6               	movwf	??_I2C1_StatusCallback
  3955  01C5  0856               	movf	??_I2C1_StatusCallback,w
  3956  01C6  00EF               	movwf	_LastSerialCMD
  3957                           
  3958                           ;i2c1.c: 205: rVAR_u = 0xA2;
  3959  01C7  30A2               	movlw	162
  3960  01C8  00D6               	movwf	??_I2C1_StatusCallback
  3961  01C9  0856               	movf	??_I2C1_StatusCallback,w
  3962  01CA  0141               	movlb	1	; select bank1
  3963  01CB  00E7               	movwf	_rVAR_u^(0+128)
  3964                           
  3965                           ;i2c1.c: 206: SERIAL_BUFFcount = 0;
  3966  01CC  01E4               	clrf	_SERIAL_BUFFcount^(0+128)
  3967                           
  3968                           ;i2c1.c: 207: EUSART1_Write(LastSerialCMD);
  3969  01CD  0140               	movlb	0	; select bank0
  3970  01CE  086F               	movf	_LastSerialCMD,w
  3971  01CF  3186  2652         	fcall	_EUSART1_Write
  3972                           
  3973                           ;i2c1.c: 208: break;
  3974  01D1  0008               	return
  3975  01D2                     i1l1851:	
  3976                           ;i2c1.c: 209: case 0xD1:
  3977                           
  3978                           
  3979                           ;i2c1.c: 210: LastSerialCMD = 0xD1;
  3980  01D2  30D1               	movlw	209
  3981  01D3  0140               	movlb	0	; select bank0
  3982  01D4  00D6               	movwf	??_I2C1_StatusCallback
  3983  01D5  0856               	movf	??_I2C1_StatusCallback,w
  3984  01D6  00EF               	movwf	_LastSerialCMD
  3985                           
  3986                           ;i2c1.c: 211: rVAR_u = 0xD1;
  3987  01D7  30D1               	movlw	209
  3988  01D8  00D6               	movwf	??_I2C1_StatusCallback
  3989  01D9  0856               	movf	??_I2C1_StatusCallback,w
  3990  01DA  0141               	movlb	1	; select bank1
  3991  01DB  00E7               	movwf	_rVAR_u^(0+128)
  3992                           
  3993                           ;i2c1.c: 212: putinrVAR();
  3994  01DC  3186  2676         	fcall	_putinrVAR
  3995                           
  3996                           ;i2c1.c: 219: }
  3997                           
  3998                           ;i2c1.c: 213: break;
  3999  01DE  0008               	return
  4000  01DF                     i1l1857:	
  4001  01DF  0140               	movlb	0	; select bank0
  4002  01E0  086B               	movf	_OBC_LastCMD,w
  4003                           
  4004                           ; Switch size 1, requested type "space"
  4005                           ; Number of cases is 16, Range of values is 32 to 255
  4006                           ; switch strategies available:
  4007                           ; Name         Instructions Cycles
  4008                           ; simple_byte           49    25 (average)
  4009                           ; jumptable            263     9 (fixed)
  4010                           ;	Chosen strategy is simple_byte
  4011  01E1  3A20               	xorlw	32	; case 32
  4012  01E2  1903               	skipnz
  4013  01E3  2860               	goto	i1l1769
  4014  01E4  3A03               	xorlw	3	; case 35
  4015  01E5  1903               	skipnz
  4016  01E6  288B               	goto	i1l1775
  4017  01E7  3A07               	xorlw	7	; case 36
  4018  01E8  1903               	skipnz
  4019  01E9  2928               	goto	i1l1791
  4020  01EA  3A76               	xorlw	118	; case 82
  4021  01EB  1903               	skipnz
  4022  01EC  2931               	goto	i1l1795
  4023  01ED  3A30               	xorlw	48	; case 98
  4024  01EE  1903               	skipnz
  4025  01EF  294E               	goto	i1l1805
  4026  01F0  3A10               	xorlw	16	; case 114
  4027  01F1  1903               	skipnz
  4028  01F2  296B               	goto	i1l1815
  4029  01F3  3AF3               	xorlw	243	; case 129
  4030  01F4  1903               	skipnz
  4031  01F5  2941               	goto	i1l1801
  4032  01F6  3A03               	xorlw	3	; case 130
  4033  01F7  1903               	skipnz
  4034  01F8  2988               	goto	i1l1825
  4035  01F9  3A13               	xorlw	19	; case 145
  4036  01FA  1903               	skipnz
  4037  01FB  295E               	goto	i1l1811
  4038  01FC  3A03               	xorlw	3	; case 146
  4039  01FD  1903               	skipnz
  4040  01FE  29A5               	goto	i1l1835
  4041  01FF  3A33               	xorlw	51	; case 161
  4042  0200  1903               	skipnz
  4043  0201  297B               	goto	i1l1821
  4044  0202  3A03               	xorlw	3	; case 162
  4045  0203  1903               	skipnz
  4046  0204  29C2               	goto	i1l1845
  4047  0205  3A13               	xorlw	19	; case 177
  4048  0206  1903               	skipnz
  4049  0207  2998               	goto	i1l1831
  4050  0208  3A70               	xorlw	112	; case 193
  4051  0209  1903               	skipnz
  4052  020A  29B5               	goto	i1l1841
  4053  020B  3A10               	xorlw	16	; case 209
  4054  020C  1903               	skipnz
  4055  020D  29D2               	goto	i1l1851
  4056  020E  3A2E               	xorlw	46	; case 255
  4057  020F  1903               	skipnz
  4058  0210  2851               	goto	i1l1765
  4059  0211  2A64               	goto	i1l375
  4060                           
  4061                           ;i2c1.c: 221: break;
  4062  0212  0008               	return
  4063  0213                     i1l1859:	
  4064                           ;i2c1.c: 226: case 0x25:
  4065                           
  4066                           ;i2c1.c: 225: switch (OBC_LastCMD){
  4067                           
  4068                           ;i2c1.c: 223: case I2C1_SLAVE_READ_REQUEST:
  4069                           
  4070                           
  4071                           ;i2c1.c: 227: SSP1BUF = rVAR_u;
  4072  0213  0141               	movlb	1	; select bank1
  4073  0214  0867               	movf	_rVAR_u^(0+128),w
  4074  0215  0143               	movlb	3	; select bank3
  4075  0216  008C               	movwf	12	;volatile
  4076                           
  4077                           ;i2c1.c: 228: break;
  4078  0217  0008               	return
  4079  0218                     i1l1861:	
  4080                           ;i2c1.c: 229: case 0x01:
  4081                           
  4082                           
  4083                           ;i2c1.c: 230: SSP1BUF = rVAR[0];
  4084  0218  0141               	movlb	1	; select bank1
  4085  0219  0860               	movf	_rVAR^(0+128),w
  4086  021A  0143               	movlb	3	; select bank3
  4087  021B  008C               	movwf	12	;volatile
  4088                           
  4089                           ;i2c1.c: 231: rVAR[0] = 0;
  4090  021C  0141               	movlb	1	; select bank1
  4091  021D  01E0               	clrf	_rVAR^(0+128)
  4092                           
  4093                           ;i2c1.c: 232: break;
  4094  021E  0008               	return
  4095  021F                     i1l1865:	
  4096                           ;i2c1.c: 233: case 0x02:
  4097                           
  4098                           
  4099                           ;i2c1.c: 234: SSP1BUF = rVAR[1];
  4100  021F  0141               	movlb	1	; select bank1
  4101  0220  0861               	movf	(_rVAR^(0+128)+1),w
  4102  0221  0143               	movlb	3	; select bank3
  4103  0222  008C               	movwf	12	;volatile
  4104                           
  4105                           ;i2c1.c: 235: rVAR[1] = 0;
  4106  0223  0141               	movlb	1	; select bank1
  4107  0224  01E1               	clrf	(_rVAR^(0+128)+1)
  4108                           
  4109                           ;i2c1.c: 236: break;
  4110  0225  0008               	return
  4111  0226                     i1l1869:	
  4112                           ;i2c1.c: 237: case 0x03:
  4113                           
  4114                           
  4115                           ;i2c1.c: 238: SSP1BUF = rVAR[2];
  4116  0226  0141               	movlb	1	; select bank1
  4117  0227  0862               	movf	(_rVAR^(0+128)+2),w
  4118  0228  0143               	movlb	3	; select bank3
  4119  0229  008C               	movwf	12	;volatile
  4120                           
  4121                           ;i2c1.c: 239: rVAR[2] = 0;
  4122  022A  0141               	movlb	1	; select bank1
  4123  022B  01E2               	clrf	(_rVAR^(0+128)+2)
  4124                           
  4125                           ;i2c1.c: 240: break;
  4126  022C  0008               	return
  4127  022D                     i1l1873:	
  4128                           ;i2c1.c: 241: case 0x04:
  4129                           
  4130                           
  4131                           ;i2c1.c: 242: SSP1BUF = rVAR[3];
  4132  022D  0141               	movlb	1	; select bank1
  4133  022E  0863               	movf	(_rVAR^(0+128)+3),w
  4134  022F  0143               	movlb	3	; select bank3
  4135  0230  008C               	movwf	12	;volatile
  4136                           
  4137                           ;i2c1.c: 243: rVAR[3] = 0;
  4138  0231  0141               	movlb	1	; select bank1
  4139  0232  01E3               	clrf	(_rVAR^(0+128)+3)
  4140                           
  4141                           ;i2c1.c: 244: break;
  4142  0233  0008               	return
  4143  0234                     i1l1877:	
  4144                           ;i2c1.c: 245: case 0x24:
  4145                           
  4146                           
  4147                           ;i2c1.c: 246: SSP1BUF = wMTQv[0];
  4148  0234  0141               	movlb	1	; select bank1
  4149  0235  084E               	movf	_wMTQv^(0+128),w
  4150  0236  0143               	movlb	3	; select bank3
  4151  0237  008C               	movwf	12	;volatile
  4152                           
  4153                           ;i2c1.c: 247: wVAR_u = 0x00;
  4154  0238  0141               	movlb	1	; select bank1
  4155  0239  01E6               	clrf	_wVAR_u^(0+128)
  4156                           
  4157                           ;i2c1.c: 248: break;
  4158  023A  0008               	return
  4159  023B                     i1l1881:	
  4160                           ;i2c1.c: 250: default:
  4161                           
  4162                           
  4163                           ;i2c1.c: 251: SSP1BUF = OBC_LastCMD;
  4164  023B  0140               	movlb	0	; select bank0
  4165  023C  086B               	movf	_OBC_LastCMD,w
  4166  023D  0143               	movlb	3	; select bank3
  4167  023E  008C               	movwf	12	;volatile
  4168                           
  4169                           ;i2c1.c: 253: }
  4170                           
  4171                           ;i2c1.c: 252: break;
  4172  023F  0008               	return
  4173  0240                     i1l1885:	
  4174  0240  0140               	movlb	0	; select bank0
  4175  0241  086B               	movf	_OBC_LastCMD,w
  4176                           
  4177                           ; Switch size 1, requested type "space"
  4178                           ; Number of cases is 6, Range of values is 1 to 37
  4179                           ; switch strategies available:
  4180                           ; Name         Instructions Cycles
  4181                           ; simple_byte           19    10 (average)
  4182                           ; direct_byte           83     9 (fixed)
  4183                           ; jumptable            263     9 (fixed)
  4184                           ;	Chosen strategy is simple_byte
  4185  0242  3A01               	xorlw	1	; case 1
  4186  0243  1903               	skipnz
  4187  0244  2A18               	goto	i1l1861
  4188  0245  3A03               	xorlw	3	; case 2
  4189  0246  1903               	skipnz
  4190  0247  2A1F               	goto	i1l1865
  4191  0248  3A01               	xorlw	1	; case 3
  4192  0249  1903               	skipnz
  4193  024A  2A26               	goto	i1l1869
  4194  024B  3A07               	xorlw	7	; case 4
  4195  024C  1903               	skipnz
  4196  024D  2A2D               	goto	i1l1873
  4197  024E  3A20               	xorlw	32	; case 36
  4198  024F  1903               	skipnz
  4199  0250  2A34               	goto	i1l1877
  4200  0251  3A01               	xorlw	1	; case 37
  4201  0252  1903               	skipnz
  4202  0253  2A13               	goto	i1l1859
  4203  0254  2A3B               	goto	i1l1881
  4204                           
  4205                           ;i2c1.c: 260: }
  4206                           
  4207                           ;i2c1.c: 258: default:;
  4208                           
  4209                           ;i2c1.c: 257: break;
  4210                           
  4211                           ;i2c1.c: 256: case I2C1_SLAVE_READ_COMPLETED:
  4212                           
  4213                           ;i2c1.c: 254: break;
  4214  0255  0008               	return
  4215  0256                     i1l1887:	
  4216  0256  0860               	movf	I2C1_StatusCallback@i2c_bus_state,w
  4217                           
  4218                           ; Switch size 1, requested type "space"
  4219                           ; Number of cases is 4, Range of values is 0 to 3
  4220                           ; switch strategies available:
  4221                           ; Name         Instructions Cycles
  4222                           ; simple_byte           13     7 (average)
  4223                           ; direct_byte           14     6 (fixed)
  4224                           ; jumptable            260     6 (fixed)
  4225                           ;	Chosen strategy is simple_byte
  4226  0257  3A00               	xorlw	0	; case 0
  4227  0258  1903               	skipnz
  4228  0259  2A64               	goto	i1l375
  4229  025A  3A01               	xorlw	1	; case 1
  4230  025B  1903               	skipnz
  4231  025C  2A40               	goto	i1l1885
  4232  025D  3A03               	xorlw	3	; case 2
  4233  025E  1903               	skipnz
  4234  025F  284C               	goto	i1l1763
  4235  0260  3A01               	xorlw	1	; case 3
  4236  0261  1903               	skipnz
  4237  0262  2A64               	goto	i1l375
  4238  0263  2A64               	goto	i1l375
  4239  0264                     i1l375:	
  4240  0264  0008               	return
  4241  0265                     __end_of_I2C1_StatusCallback:	
  4242                           
  4243                           	psect	text9
  4244  06F4                     __ptext9:	
  4245 ;; *************** function _torVAR *****************
  4246 ;; Defined at:
  4247 ;;		line 265 in file "mcc_generated_files/i2c1.c"
  4248 ;; Parameters:    Size  Location     Type
  4249 ;;  data            3    0[COMMON] float 
  4250 ;; Auto vars:     Size  Location     Type
  4251 ;;  floatUnion      4    4[COMMON] struct .
  4252 ;;  xount           1    8[COMMON] unsigned char 
  4253 ;; Return value:  Size  Location     Type
  4254 ;;                  1    wreg      void 
  4255 ;; Registers used:
  4256 ;;		wreg, fsr1l, fsr1h, status,2, status,0
  4257 ;; Tracked objects:
  4258 ;;		On entry : 0/0
  4259 ;;		On exit  : 0/0
  4260 ;;		Unchanged: 0/0
  4261 ;; Data sizes:     COMMON   BANK0   BANK1   BANK2   BANK3   BANK4   BANK5   BANK6   BANK7   BANK8   BANK9  BANK10  BANK1
      +1  BANK12
  4262 ;;      Params:         3       0       0       0       0       0       0       0       0       0       0       0       
      +0       0
  4263 ;;      Locals:         5       0       0       0       0       0       0       0       0       0       0       0       
      +0       0
  4264 ;;      Temps:          1       0       0       0       0       0       0       0       0       0       0       0       
      +0       0
  4265 ;;      Totals:         9       0       0       0       0       0       0       0       0       0       0       0       
      +0       0
  4266 ;;Total ram usage:        9 bytes
  4267 ;; Hardware stack levels used:    1
  4268 ;; This function calls:
  4269 ;;		Nothing
  4270 ;; This function is called by:
  4271 ;;		_I2C1_StatusCallback
  4272 ;; This function uses a non-reentrant model
  4273 ;;
  4274                           
  4275                           
  4276                           ;psect for function _torVAR
  4277  06F4                     _torVAR:	
  4278                           
  4279                           ;i2c1.c: 266: union {
  4280                           ;i2c1.c: 267: float FloatValue;
  4281                           ;i2c1.c: 268: unsigned char bytesOfFloatValue[4];
  4282                           ;i2c1.c: 269: } floatUnion;
  4283                           ;i2c1.c: 271: floatUnion.FloatValue = data;
  4284                           
  4285                           ;incstack = 0
  4286                           ; Regs used in _torVAR: [wreg+fsr1l+fsr1h+status,2+status,0]
  4287  06F4  0870               	movf	torVAR@data,w
  4288  06F5  00F4               	movwf	torVAR@floatUnion
  4289  06F6  0871               	movf	torVAR@data+1,w
  4290  06F7  00F5               	movwf	torVAR@floatUnion+1
  4291  06F8  0872               	movf	torVAR@data+2,w
  4292  06F9  00F6               	movwf	torVAR@floatUnion+2
  4293                           
  4294                           ;i2c1.c: 273: uint8_t xount =0;
  4295  06FA  01F8               	clrf	torVAR@xount
  4296                           
  4297                           ;i2c1.c: 274: for (xount=0; xount<4; ++xount){
  4298  06FB  01F8               	clrf	torVAR@xount
  4299  06FC                     L2:	
  4300  06FC  3004               	movlw	4
  4301  06FD  0278               	subwf	torVAR@xount,w
  4302  06FE  1803               	btfsc	3,0
  4303  06FF  0008               	return
  4304                           
  4305                           ;i2c1.c: 275: rVAR[xount] = floatUnion.bytesOfFloatValue[xount];
  4306  0700  0878               	movf	torVAR@xount,w
  4307  0701  3E74               	addlw	(low (torVAR@floatUnion| 0))& (0+255)
  4308  0702  0086               	movwf	6
  4309  0703  0187               	clrf	7
  4310  0704  0801               	movf	1,w
  4311  0705  00F3               	movwf	??_torVAR
  4312  0706  0878               	movf	torVAR@xount,w
  4313  0707  3EE0               	addlw	(low (_rVAR| 0))& (0+255)
  4314  0708  0086               	movwf	6
  4315  0709  0187               	clrf	7
  4316  070A  0873               	movf	??_torVAR,w
  4317  070B  0081               	movwf	1
  4318  070C  3001               	movlw	1
  4319  070D  00F3               	movwf	??_torVAR
  4320  070E  0873               	movf	??_torVAR,w
  4321  070F  07F8               	addwf	torVAR@xount,f
  4322  0710  2EFC               	goto	L2
  4323  0711                     __end_of_torVAR:	
  4324                           
  4325                           	psect	text10
  4326  0676                     __ptext10:	
  4327 ;; *************** function _putinrVAR *****************
  4328 ;; Defined at:
  4329 ;;		line 279 in file "mcc_generated_files/i2c1.c"
  4330 ;; Parameters:    Size  Location     Type
  4331 ;;		None
  4332 ;; Auto vars:     Size  Location     Type
  4333 ;;		None
  4334 ;; Return value:  Size  Location     Type
  4335 ;;                  1    wreg      void 
  4336 ;; Registers used:
  4337 ;;		wreg
  4338 ;; Tracked objects:
  4339 ;;		On entry : 0/0
  4340 ;;		On exit  : 0/0
  4341 ;;		Unchanged: 0/0
  4342 ;; Data sizes:     COMMON   BANK0   BANK1   BANK2   BANK3   BANK4   BANK5   BANK6   BANK7   BANK8   BANK9  BANK10  BANK1
      +1  BANK12
  4343 ;;      Params:         0       0       0       0       0       0       0       0       0       0       0       0       
      +0       0
  4344 ;;      Locals:         0       0       0       0       0       0       0       0       0       0       0       0       
      +0       0
  4345 ;;      Temps:          1       0       0       0       0       0       0       0       0       0       0       0       
      +0       0
  4346 ;;      Totals:         1       0       0       0       0       0       0       0       0       0       0       0       
      +0       0
  4347 ;;Total ram usage:        1 bytes
  4348 ;; Hardware stack levels used:    1
  4349 ;; This function calls:
  4350 ;;		Nothing
  4351 ;; This function is called by:
  4352 ;;		_I2C1_StatusCallback
  4353 ;; This function uses a non-reentrant model
  4354 ;;
  4355                           
  4356                           
  4357                           ;psect for function _putinrVAR
  4358  0676                     _putinrVAR:	
  4359                           
  4360                           ;i2c1.c: 280: SerialLast.BYTESarray[0] = SERIAL_BUFF[0];
  4361                           
  4362                           ;incstack = 0
  4363                           ; Regs used in _putinrVAR: [wreg]
  4364  0676  0141               	movlb	1	; select bank1
  4365  0677  0848               	movf	_SERIAL_BUFF^(0+128),w
  4366  0678  00F0               	movwf	??_putinrVAR
  4367  0679  0870               	movf	??_putinrVAR,w
  4368  067A  00D8               	movwf	_SerialLast^(0+128)
  4369                           
  4370                           ;i2c1.c: 281: SerialLast.BYTESarray[1] = SERIAL_BUFF[1];
  4371  067B  0849               	movf	(_SERIAL_BUFF^(0+128)+1),w
  4372  067C  00F0               	movwf	??_putinrVAR
  4373  067D  0870               	movf	??_putinrVAR,w
  4374  067E  00D9               	movwf	(_SerialLast^(0+128)+1)
  4375                           
  4376                           ;i2c1.c: 282: SerialLast.BYTESarray[2] = SERIAL_BUFF[2];
  4377  067F  084A               	movf	(_SERIAL_BUFF^(0+128)+2),w
  4378  0680  00F0               	movwf	??_putinrVAR
  4379  0681  0870               	movf	??_putinrVAR,w
  4380  0682  00DA               	movwf	(_SerialLast^(0+128)+2)
  4381                           
  4382                           ;i2c1.c: 283: SerialLast.BYTESarray[3] = SERIAL_BUFF[3];
  4383  0683  084B               	movf	(_SERIAL_BUFF^(0+128)+3),w
  4384  0684  00F0               	movwf	??_putinrVAR
  4385  0685  0870               	movf	??_putinrVAR,w
  4386  0686  00DB               	movwf	(_SerialLast^(0+128)+3)
  4387                           
  4388                           ;i2c1.c: 286: rVAR[0] = SerialLast.BYTESarray[1];
  4389  0687  0859               	movf	(_SerialLast^(0+128)+1),w
  4390  0688  00F0               	movwf	??_putinrVAR
  4391  0689  0870               	movf	??_putinrVAR,w
  4392  068A  00E0               	movwf	_rVAR^(0+128)
  4393                           
  4394                           ;i2c1.c: 287: rVAR[1] = SerialLast.BYTESarray[2];
  4395  068B  085A               	movf	(_SerialLast^(0+128)+2),w
  4396  068C  00F0               	movwf	??_putinrVAR
  4397  068D  0870               	movf	??_putinrVAR,w
  4398  068E  00E1               	movwf	(_rVAR^(0+128)+1)
  4399                           
  4400                           ;i2c1.c: 288: rVAR[2] = SerialLast.BYTESarray[3];
  4401  068F  085B               	movf	(_SerialLast^(0+128)+3),w
  4402  0690  00F0               	movwf	??_putinrVAR
  4403  0691  0870               	movf	??_putinrVAR,w
  4404  0692  00E2               	movwf	(_rVAR^(0+128)+2)
  4405                           
  4406                           ;i2c1.c: 289: rVAR[3] = SerialLast.BYTESarray[0];
  4407  0693  0858               	movf	_SerialLast^(0+128),w
  4408  0694  00F0               	movwf	??_putinrVAR
  4409  0695  0870               	movf	??_putinrVAR,w
  4410  0696  00E3               	movwf	(_rVAR^(0+128)+3)
  4411  0697  0008               	return
  4412  0698                     __end_of_putinrVAR:	
  4413                           
  4414                           	psect	text11
  4415  04B7                     __ptext11:	
  4416 ;; *************** function ___fttol *****************
  4417 ;; Defined at:
  4418 ;;		line 44 in file "C:\Program Files (x86)\Microchip\xc8\v1.41\sources\common\fttol.c"
  4419 ;; Parameters:    Size  Location     Type
  4420 ;;  f1              3   39[BANK0 ] float 
  4421 ;; Auto vars:     Size  Location     Type
  4422 ;;  lval            4   48[BANK0 ] unsigned long 
  4423 ;;  exp1            1   52[BANK0 ] unsigned char 
  4424 ;;  sign1           1   47[BANK0 ] unsigned char 
  4425 ;; Return value:  Size  Location     Type
  4426 ;;                  4   39[BANK0 ] long 
  4427 ;; Registers used:
  4428 ;;		wreg, status,2, status,0
  4429 ;; Tracked objects:
  4430 ;;		On entry : 0/0
  4431 ;;		On exit  : 0/0
  4432 ;;		Unchanged: 0/0
  4433 ;; Data sizes:     COMMON   BANK0   BANK1   BANK2   BANK3   BANK4   BANK5   BANK6   BANK7   BANK8   BANK9  BANK10  BANK1
      +1  BANK12
  4434 ;;      Params:         0       4       0       0       0       0       0       0       0       0       0       0       
      +0       0
  4435 ;;      Locals:         0       6       0       0       0       0       0       0       0       0       0       0       
      +0       0
  4436 ;;      Temps:          0       4       0       0       0       0       0       0       0       0       0       0       
      +0       0
  4437 ;;      Totals:         0      14       0       0       0       0       0       0       0       0       0       0       
      +0       0
  4438 ;;Total ram usage:       14 bytes
  4439 ;; Hardware stack levels used:    1
  4440 ;; This function calls:
  4441 ;;		Nothing
  4442 ;; This function is called by:
  4443 ;;		_I2C1_StatusCallback
  4444 ;; This function uses a non-reentrant model
  4445 ;;
  4446                           
  4447                           
  4448                           ;psect for function ___fttol
  4449  04B7                     ___fttol:	
  4450                           
  4451                           ;incstack = 0
  4452                           ; Regs used in ___fttol: [wreg+status,2+status,0]
  4453  04B7  0140               	movlb	0	; select bank0
  4454  04B8  0847               	movf	___fttol@f1,w
  4455  04B9  00CB               	movwf	??___fttol
  4456  04BA  0848               	movf	___fttol@f1+1,w
  4457  04BB  00CC               	movwf	??___fttol+1
  4458  04BC  0849               	movf	___fttol@f1+2,w
  4459  04BD  00CD               	movwf	??___fttol+2
  4460  04BE  1003               	clrc
  4461  04BF  0D4C               	rlf	??___fttol+1,w
  4462  04C0  0D4D               	rlf	??___fttol+2,w
  4463  04C1  00CE               	movwf	??___fttol+3
  4464  04C2  084E               	movf	??___fttol+3,w
  4465  04C3  00D4               	movwf	___fttol@exp1
  4466  04C4  0854               	movf	___fttol@exp1,w
  4467  04C5  1D03               	btfss	3,2
  4468  04C6  2CD0               	goto	i1l1649
  4469  04C7  3000               	movlw	0
  4470  04C8  00CA               	movwf	?___fttol+3
  4471  04C9  3000               	movlw	0
  4472  04CA  00C9               	movwf	?___fttol+2
  4473  04CB  3000               	movlw	0
  4474  04CC  00C8               	movwf	?___fttol+1
  4475  04CD  3000               	movlw	0
  4476  04CE  00C7               	movwf	?___fttol
  4477  04CF  0008               	return
  4478  04D0                     i1l1649:	
  4479  04D0  0847               	movf	___fttol@f1,w
  4480  04D1  00CB               	movwf	??___fttol
  4481  04D2  0848               	movf	___fttol@f1+1,w
  4482  04D3  00CC               	movwf	??___fttol+1
  4483  04D4  0849               	movf	___fttol@f1+2,w
  4484  04D5  00CD               	movwf	??___fttol+2
  4485  04D6  3017               	movlw	23
  4486  04D7                     u157_25:	
  4487  04D7  36CD               	lsrf	??___fttol+2,f
  4488  04D8  0CCC               	rrf	??___fttol+1,f
  4489  04D9  0CCB               	rrf	??___fttol,f
  4490  04DA  0B89               	decfsz	9,f
  4491  04DB  2CD7               	goto	u157_25
  4492  04DC  084B               	movf	??___fttol,w
  4493  04DD  00CE               	movwf	??___fttol+3
  4494  04DE  084E               	movf	??___fttol+3,w
  4495  04DF  00CF               	movwf	___fttol@sign1
  4496  04E0  17C8               	bsf	___fttol@f1+1,7
  4497  04E1  30FF               	movlw	255
  4498  04E2  05C7               	andwf	___fttol@f1,f
  4499  04E3  30FF               	movlw	255
  4500  04E4  05C8               	andwf	___fttol@f1+1,f
  4501  04E5  3000               	movlw	0
  4502  04E6  05C9               	andwf	___fttol@f1+2,f
  4503  04E7  0847               	movf	___fttol@f1,w
  4504  04E8  00D0               	movwf	___fttol@lval
  4505  04E9  0848               	movf	___fttol@f1+1,w
  4506  04EA  00D1               	movwf	___fttol@lval+1
  4507  04EB  0849               	movf	___fttol@f1+2,w
  4508  04EC  00D2               	movwf	___fttol@lval+2
  4509  04ED  01D3               	clrf	___fttol@lval+3
  4510  04EE  308E               	movlw	142
  4511  04EF  02D4               	subwf	___fttol@exp1,f
  4512  04F0  1FD4               	btfss	___fttol@exp1,7
  4513  04F1  2D0E               	goto	i1l1669
  4514  04F2  0854               	movf	___fttol@exp1,w
  4515  04F3  3A80               	xorlw	128
  4516  04F4  3E8F               	addlw	143
  4517  04F5  1803               	skipnc
  4518  04F6  2D00               	goto	i1l1667
  4519  04F7  3000               	movlw	0
  4520  04F8  00CA               	movwf	?___fttol+3
  4521  04F9  3000               	movlw	0
  4522  04FA  00C9               	movwf	?___fttol+2
  4523  04FB  3000               	movlw	0
  4524  04FC  00C8               	movwf	?___fttol+1
  4525  04FD  3000               	movlw	0
  4526  04FE  00C7               	movwf	?___fttol
  4527  04FF  0008               	return
  4528  0500                     i1l1667:	
  4529  0500  3001               	movlw	1
  4530  0501                     u160_25:	
  4531  0501  36D3               	lsrf	___fttol@lval+3,f
  4532  0502  0CD2               	rrf	___fttol@lval+2,f
  4533  0503  0CD1               	rrf	___fttol@lval+1,f
  4534  0504  0CD0               	rrf	___fttol@lval,f
  4535  0505  0B89               	decfsz	9,f
  4536  0506  2D01               	goto	u160_25
  4537  0507  3001               	movlw	1
  4538  0508  00CB               	movwf	??___fttol
  4539  0509  084B               	movf	??___fttol,w
  4540  050A  07D4               	addwf	___fttol@exp1,f
  4541  050B  1903               	btfsc	3,2
  4542  050C  2D27               	goto	i1l1677
  4543  050D  2D00               	goto	i1l1667
  4544  050E                     i1l1669:	
  4545  050E  3018               	movlw	24
  4546  050F  0254               	subwf	___fttol@exp1,w
  4547  0510  1C03               	skipc
  4548  0511  2D24               	goto	i1l695
  4549  0512  3000               	movlw	0
  4550  0513  00CA               	movwf	?___fttol+3
  4551  0514  3000               	movlw	0
  4552  0515  00C9               	movwf	?___fttol+2
  4553  0516  3000               	movlw	0
  4554  0517  00C8               	movwf	?___fttol+1
  4555  0518  3000               	movlw	0
  4556  0519  00C7               	movwf	?___fttol
  4557  051A  0008               	return
  4558  051B                     i1l1675:	
  4559  051B  3001               	movlw	1
  4560  051C                     u163_25:	
  4561  051C  35D0               	lslf	___fttol@lval,f
  4562  051D  0DD1               	rlf	___fttol@lval+1,f
  4563  051E  0DD2               	rlf	___fttol@lval+2,f
  4564  051F  0DD3               	rlf	___fttol@lval+3,f
  4565  0520  0B89               	decfsz	9,f
  4566  0521  2D1C               	goto	u163_25
  4567  0522  3001               	movlw	1
  4568  0523  02D4               	subwf	___fttol@exp1,f
  4569  0524                     i1l695:	
  4570  0524  0854               	movf	___fttol@exp1,w
  4571  0525  1D03               	btfss	3,2
  4572  0526  2D1B               	goto	i1l1675
  4573  0527                     i1l1677:	
  4574  0527  084F               	movf	___fttol@sign1,w
  4575  0528  1903               	btfsc	3,2
  4576  0529  2D35               	goto	i1l1681
  4577  052A  09D0               	comf	___fttol@lval,f
  4578  052B  09D1               	comf	___fttol@lval+1,f
  4579  052C  09D2               	comf	___fttol@lval+2,f
  4580  052D  09D3               	comf	___fttol@lval+3,f
  4581  052E  0AD0               	incf	___fttol@lval,f
  4582  052F  1903               	skipnz
  4583  0530  0AD1               	incf	___fttol@lval+1,f
  4584  0531  1903               	skipnz
  4585  0532  0AD2               	incf	___fttol@lval+2,f
  4586  0533  1903               	skipnz
  4587  0534  0AD3               	incf	___fttol@lval+3,f
  4588  0535                     i1l1681:	
  4589  0535  0853               	movf	___fttol@lval+3,w
  4590  0536  00CA               	movwf	?___fttol+3
  4591  0537  0852               	movf	___fttol@lval+2,w
  4592  0538  00C9               	movwf	?___fttol+2
  4593  0539  0851               	movf	___fttol@lval+1,w
  4594  053A  00C8               	movwf	?___fttol+1
  4595  053B  0850               	movf	___fttol@lval,w
  4596  053C  00C7               	movwf	?___fttol
  4597  053D  0008               	return
  4598  053E                     __end_of___fttol:	
  4599                           
  4600                           	psect	text12
  4601  035A                     __ptext12:	
  4602 ;; *************** function ___ftmul *****************
  4603 ;; Defined at:
  4604 ;;		line 62 in file "C:\Program Files (x86)\Microchip\xc8\v1.41\sources\common\ftmul.c"
  4605 ;; Parameters:    Size  Location     Type
  4606 ;;  f1              3   23[BANK0 ] float 
  4607 ;;  f2              3   26[BANK0 ] float 
  4608 ;; Auto vars:     Size  Location     Type
  4609 ;;  f3_as_produc    3   34[BANK0 ] unsigned um
  4610 ;;  sign            1   38[BANK0 ] unsigned char 
  4611 ;;  cntr            1   37[BANK0 ] unsigned char 
  4612 ;;  exp             1   33[BANK0 ] unsigned char 
  4613 ;; Return value:  Size  Location     Type
  4614 ;;                  3   23[BANK0 ] float 
  4615 ;; Registers used:
  4616 ;;		wreg, status,2, status,0, pclath, cstack
  4617 ;; Tracked objects:
  4618 ;;		On entry : 0/0
  4619 ;;		On exit  : 0/0
  4620 ;;		Unchanged: 0/0
  4621 ;; Data sizes:     COMMON   BANK0   BANK1   BANK2   BANK3   BANK4   BANK5   BANK6   BANK7   BANK8   BANK9  BANK10  BANK1
      +1  BANK12
  4622 ;;      Params:         0       6       0       0       0       0       0       0       0       0       0       0       
      +0       0
  4623 ;;      Locals:         0       6       0       0       0       0       0       0       0       0       0       0       
      +0       0
  4624 ;;      Temps:          0       4       0       0       0       0       0       0       0       0       0       0       
      +0       0
  4625 ;;      Totals:         0      16       0       0       0       0       0       0       0       0       0       0       
      +0       0
  4626 ;;Total ram usage:       16 bytes
  4627 ;; Hardware stack levels used:    1
  4628 ;; Hardware stack levels required when called:    1
  4629 ;; This function calls:
  4630 ;;		___ftpack
  4631 ;; This function is called by:
  4632 ;;		_I2C1_StatusCallback
  4633 ;; This function uses a non-reentrant model
  4634 ;;
  4635                           
  4636                           
  4637                           ;psect for function ___ftmul
  4638  035A                     ___ftmul:	
  4639                           
  4640                           ;incstack = 0
  4641                           ; Regs used in ___ftmul: [wreg+status,2+status,0+pclath+cstack]
  4642  035A  0140               	movlb	0	; select bank0
  4643  035B  0837               	movf	___ftmul@f1,w
  4644  035C  00BD               	movwf	??___ftmul
  4645  035D  0838               	movf	___ftmul@f1+1,w
  4646  035E  00BE               	movwf	??___ftmul+1
  4647  035F  0839               	movf	___ftmul@f1+2,w
  4648  0360  00BF               	movwf	??___ftmul+2
  4649  0361  1003               	clrc
  4650  0362  0D3E               	rlf	??___ftmul+1,w
  4651  0363  0D3F               	rlf	??___ftmul+2,w
  4652  0364  00C0               	movwf	??___ftmul+3
  4653  0365  0840               	movf	??___ftmul+3,w
  4654  0366  00C1               	movwf	___ftmul@exp
  4655  0367  0841               	movf	___ftmul@exp,w
  4656  0368  1D03               	btfss	3,2
  4657  0369  2B71               	goto	i1l1599
  4658  036A  3000               	movlw	0
  4659  036B  00B7               	movwf	?___ftmul
  4660  036C  3000               	movlw	0
  4661  036D  00B8               	movwf	?___ftmul+1
  4662  036E  3000               	movlw	0
  4663  036F  00B9               	movwf	?___ftmul+2
  4664  0370  0008               	return
  4665  0371                     i1l1599:	
  4666  0371  083A               	movf	___ftmul@f2,w
  4667  0372  00BD               	movwf	??___ftmul
  4668  0373  083B               	movf	___ftmul@f2+1,w
  4669  0374  00BE               	movwf	??___ftmul+1
  4670  0375  083C               	movf	___ftmul@f2+2,w
  4671  0376  00BF               	movwf	??___ftmul+2
  4672  0377  1003               	clrc
  4673  0378  0D3E               	rlf	??___ftmul+1,w
  4674  0379  0D3F               	rlf	??___ftmul+2,w
  4675  037A  00C0               	movwf	??___ftmul+3
  4676  037B  0840               	movf	??___ftmul+3,w
  4677  037C  00C6               	movwf	___ftmul@sign
  4678  037D  0846               	movf	___ftmul@sign,w
  4679  037E  1D03               	btfss	3,2
  4680  037F  2B87               	goto	i1l1605
  4681  0380  3000               	movlw	0
  4682  0381  00B7               	movwf	?___ftmul
  4683  0382  3000               	movlw	0
  4684  0383  00B8               	movwf	?___ftmul+1
  4685  0384  3000               	movlw	0
  4686  0385  00B9               	movwf	?___ftmul+2
  4687  0386  0008               	return
  4688  0387                     i1l1605:	
  4689  0387  0846               	movf	___ftmul@sign,w
  4690  0388  3E7B               	addlw	123
  4691  0389  00BD               	movwf	??___ftmul
  4692  038A  083D               	movf	??___ftmul,w
  4693  038B  07C1               	addwf	___ftmul@exp,f
  4694  038C  0837               	movf	___ftmul@f1,w
  4695  038D  00BD               	movwf	??___ftmul
  4696  038E  0838               	movf	___ftmul@f1+1,w
  4697  038F  00BE               	movwf	??___ftmul+1
  4698  0390  0839               	movf	___ftmul@f1+2,w
  4699  0391  00BF               	movwf	??___ftmul+2
  4700  0392  3010               	movlw	16
  4701  0393                     u146_25:	
  4702  0393  36BF               	lsrf	??___ftmul+2,f
  4703  0394  0CBE               	rrf	??___ftmul+1,f
  4704  0395  0CBD               	rrf	??___ftmul,f
  4705  0396  0B89               	decfsz	9,f
  4706  0397  2B93               	goto	u146_25
  4707  0398  083D               	movf	??___ftmul,w
  4708  0399  00C0               	movwf	??___ftmul+3
  4709  039A  0840               	movf	??___ftmul+3,w
  4710  039B  00C6               	movwf	___ftmul@sign
  4711  039C  083A               	movf	___ftmul@f2,w
  4712  039D  00BD               	movwf	??___ftmul
  4713  039E  083B               	movf	___ftmul@f2+1,w
  4714  039F  00BE               	movwf	??___ftmul+1
  4715  03A0  083C               	movf	___ftmul@f2+2,w
  4716  03A1  00BF               	movwf	??___ftmul+2
  4717  03A2  3010               	movlw	16
  4718  03A3                     u147_25:	
  4719  03A3  36BF               	lsrf	??___ftmul+2,f
  4720  03A4  0CBE               	rrf	??___ftmul+1,f
  4721  03A5  0CBD               	rrf	??___ftmul,f
  4722  03A6  0B89               	decfsz	9,f
  4723  03A7  2BA3               	goto	u147_25
  4724  03A8  083D               	movf	??___ftmul,w
  4725  03A9  00C0               	movwf	??___ftmul+3
  4726  03AA  0840               	movf	??___ftmul+3,w
  4727  03AB  06C6               	xorwf	___ftmul@sign,f
  4728  03AC  3080               	movlw	128
  4729  03AD  00BD               	movwf	??___ftmul
  4730  03AE  083D               	movf	??___ftmul,w
  4731  03AF  05C6               	andwf	___ftmul@sign,f
  4732  03B0  17B8               	bsf	___ftmul@f1+1,7
  4733  03B1  17BB               	bsf	___ftmul@f2+1,7
  4734  03B2  30FF               	movlw	255
  4735  03B3  05BA               	andwf	___ftmul@f2,f
  4736  03B4  30FF               	movlw	255
  4737  03B5  05BB               	andwf	___ftmul@f2+1,f
  4738  03B6  3000               	movlw	0
  4739  03B7  05BC               	andwf	___ftmul@f2+2,f
  4740  03B8  3000               	movlw	0
  4741  03B9  00C2               	movwf	___ftmul@f3_as_product
  4742  03BA  3000               	movlw	0
  4743  03BB  00C3               	movwf	___ftmul@f3_as_product+1
  4744  03BC  3000               	movlw	0
  4745  03BD  00C4               	movwf	___ftmul@f3_as_product+2
  4746  03BE  3007               	movlw	7
  4747  03BF  00BD               	movwf	??___ftmul
  4748  03C0  083D               	movf	??___ftmul,w
  4749  03C1  00C5               	movwf	___ftmul@cntr
  4750  03C2                     i1l1617:	
  4751  03C2  1C37               	btfss	___ftmul@f1,0
  4752  03C3  2BCA               	goto	i1l1621
  4753  03C4  083A               	movf	___ftmul@f2,w
  4754  03C5  07C2               	addwf	___ftmul@f3_as_product,f
  4755  03C6  083B               	movf	___ftmul@f2+1,w
  4756  03C7  3DC3               	addwfc	___ftmul@f3_as_product+1,f
  4757  03C8  083C               	movf	___ftmul@f2+2,w
  4758  03C9  3DC4               	addwfc	___ftmul@f3_as_product+2,f
  4759  03CA                     i1l1621:	
  4760  03CA  3001               	movlw	1
  4761  03CB                     u149_25:	
  4762  03CB  36B9               	lsrf	___ftmul@f1+2,f
  4763  03CC  0CB8               	rrf	___ftmul@f1+1,f
  4764  03CD  0CB7               	rrf	___ftmul@f1,f
  4765  03CE  0B89               	decfsz	9,f
  4766  03CF  2BCB               	goto	u149_25
  4767  03D0  3001               	movlw	1
  4768  03D1                     u150_25:	
  4769  03D1  35BA               	lslf	___ftmul@f2,f
  4770  03D2  0DBB               	rlf	___ftmul@f2+1,f
  4771  03D3  0DBC               	rlf	___ftmul@f2+2,f
  4772  03D4  0B89               	decfsz	9,f
  4773  03D5  2BD1               	goto	u150_25
  4774  03D6  3001               	movlw	1
  4775  03D7  02C5               	subwf	___ftmul@cntr,f
  4776  03D8  1D03               	btfss	3,2
  4777  03D9  2BC2               	goto	i1l1617
  4778  03DA  3009               	movlw	9
  4779  03DB  00BD               	movwf	??___ftmul
  4780  03DC  083D               	movf	??___ftmul,w
  4781  03DD  00C5               	movwf	___ftmul@cntr
  4782  03DE                     i1l1629:	
  4783  03DE  1C37               	btfss	___ftmul@f1,0
  4784  03DF  2BE6               	goto	i1l1633
  4785  03E0  083A               	movf	___ftmul@f2,w
  4786  03E1  07C2               	addwf	___ftmul@f3_as_product,f
  4787  03E2  083B               	movf	___ftmul@f2+1,w
  4788  03E3  3DC3               	addwfc	___ftmul@f3_as_product+1,f
  4789  03E4  083C               	movf	___ftmul@f2+2,w
  4790  03E5  3DC4               	addwfc	___ftmul@f3_as_product+2,f
  4791  03E6                     i1l1633:	
  4792  03E6  3001               	movlw	1
  4793  03E7                     u153_25:	
  4794  03E7  36B9               	lsrf	___ftmul@f1+2,f
  4795  03E8  0CB8               	rrf	___ftmul@f1+1,f
  4796  03E9  0CB7               	rrf	___ftmul@f1,f
  4797  03EA  0B89               	decfsz	9,f
  4798  03EB  2BE7               	goto	u153_25
  4799  03EC  3001               	movlw	1
  4800  03ED                     u154_25:	
  4801  03ED  36C4               	lsrf	___ftmul@f3_as_product+2,f
  4802  03EE  0CC3               	rrf	___ftmul@f3_as_product+1,f
  4803  03EF  0CC2               	rrf	___ftmul@f3_as_product,f
  4804  03F0  0B89               	decfsz	9,f
  4805  03F1  2BED               	goto	u154_25
  4806  03F2  3001               	movlw	1
  4807  03F3  02C5               	subwf	___ftmul@cntr,f
  4808  03F4  1D03               	btfss	3,2
  4809  03F5  2BDE               	goto	i1l1629
  4810  03F6  0842               	movf	___ftmul@f3_as_product,w
  4811  03F7  00F0               	movwf	___ftpack@arg
  4812  03F8  0843               	movf	___ftmul@f3_as_product+1,w
  4813  03F9  00F1               	movwf	___ftpack@arg+1
  4814  03FA  0844               	movf	___ftmul@f3_as_product+2,w
  4815  03FB  00F2               	movwf	___ftpack@arg+2
  4816  03FC  0841               	movf	___ftmul@exp,w
  4817  03FD  00BD               	movwf	??___ftmul
  4818  03FE  083D               	movf	??___ftmul,w
  4819  03FF  00F3               	movwf	___ftpack@exp
  4820  0400  0846               	movf	___ftmul@sign,w
  4821  0401  00BE               	movwf	??___ftmul+1
  4822  0402  083E               	movf	??___ftmul+1,w
  4823  0403  00F4               	movwf	___ftpack@sign
  4824  0404  3185  253E         	fcall	___ftpack
  4825  0406  0870               	movf	?___ftpack,w
  4826  0407  0140               	movlb	0	; select bank0
  4827  0408  00B7               	movwf	?___ftmul
  4828  0409  0871               	movf	?___ftpack+1,w
  4829  040A  00B8               	movwf	?___ftmul+1
  4830  040B  0872               	movf	?___ftpack+2,w
  4831  040C  00B9               	movwf	?___ftmul+2
  4832  040D  0008               	return
  4833  040E                     __end_of___ftmul:	
  4834                           
  4835                           	psect	text13
  4836  040E                     __ptext13:	
  4837 ;; *************** function ___ftdiv *****************
  4838 ;; Defined at:
  4839 ;;		line 56 in file "C:\Program Files (x86)\Microchip\xc8\v1.41\sources\common\ftdiv.c"
  4840 ;; Parameters:    Size  Location     Type
  4841 ;;  f2              3    7[BANK0 ] float 
  4842 ;;  f1              3   10[BANK0 ] float 
  4843 ;; Auto vars:     Size  Location     Type
  4844 ;;  f3              3   18[BANK0 ] float 
  4845 ;;  sign            1   22[BANK0 ] unsigned char 
  4846 ;;  exp             1   21[BANK0 ] unsigned char 
  4847 ;;  cntr            1   17[BANK0 ] unsigned char 
  4848 ;; Return value:  Size  Location     Type
  4849 ;;                  3    7[BANK0 ] float 
  4850 ;; Registers used:
  4851 ;;		wreg, status,2, status,0, pclath, cstack
  4852 ;; Tracked objects:
  4853 ;;		On entry : 0/0
  4854 ;;		On exit  : 0/0
  4855 ;;		Unchanged: 0/0
  4856 ;; Data sizes:     COMMON   BANK0   BANK1   BANK2   BANK3   BANK4   BANK5   BANK6   BANK7   BANK8   BANK9  BANK10  BANK1
      +1  BANK12
  4857 ;;      Params:         0       6       0       0       0       0       0       0       0       0       0       0       
      +0       0
  4858 ;;      Locals:         0       6       0       0       0       0       0       0       0       0       0       0       
      +0       0
  4859 ;;      Temps:          0       4       0       0       0       0       0       0       0       0       0       0       
      +0       0
  4860 ;;      Totals:         0      16       0       0       0       0       0       0       0       0       0       0       
      +0       0
  4861 ;;Total ram usage:       16 bytes
  4862 ;; Hardware stack levels used:    1
  4863 ;; Hardware stack levels required when called:    1
  4864 ;; This function calls:
  4865 ;;		___ftpack
  4866 ;; This function is called by:
  4867 ;;		_I2C1_StatusCallback
  4868 ;; This function uses a non-reentrant model
  4869 ;;
  4870                           
  4871                           
  4872                           ;psect for function ___ftdiv
  4873  040E                     ___ftdiv:	
  4874                           
  4875                           ;incstack = 0
  4876                           ; Regs used in ___ftdiv: [wreg+status,2+status,0+pclath+cstack]
  4877  040E  0140               	movlb	0	; select bank0
  4878  040F  082A               	movf	___ftdiv@f1,w
  4879  0410  00AD               	movwf	??___ftdiv
  4880  0411  082B               	movf	___ftdiv@f1+1,w
  4881  0412  00AE               	movwf	??___ftdiv+1
  4882  0413  082C               	movf	___ftdiv@f1+2,w
  4883  0414  00AF               	movwf	??___ftdiv+2
  4884  0415  1003               	clrc
  4885  0416  0D2E               	rlf	??___ftdiv+1,w
  4886  0417  0D2F               	rlf	??___ftdiv+2,w
  4887  0418  00B0               	movwf	??___ftdiv+3
  4888  0419  0830               	movf	??___ftdiv+3,w
  4889  041A  00B5               	movwf	___ftdiv@exp
  4890  041B  0835               	movf	___ftdiv@exp,w
  4891  041C  1D03               	btfss	3,2
  4892  041D  2C25               	goto	i1l1557
  4893  041E  3000               	movlw	0
  4894  041F  00A7               	movwf	?___ftdiv
  4895  0420  3000               	movlw	0
  4896  0421  00A8               	movwf	?___ftdiv+1
  4897  0422  3000               	movlw	0
  4898  0423  00A9               	movwf	?___ftdiv+2
  4899  0424  0008               	return
  4900  0425                     i1l1557:	
  4901  0425  0827               	movf	___ftdiv@f2,w
  4902  0426  00AD               	movwf	??___ftdiv
  4903  0427  0828               	movf	___ftdiv@f2+1,w
  4904  0428  00AE               	movwf	??___ftdiv+1
  4905  0429  0829               	movf	___ftdiv@f2+2,w
  4906  042A  00AF               	movwf	??___ftdiv+2
  4907  042B  1003               	clrc
  4908  042C  0D2E               	rlf	??___ftdiv+1,w
  4909  042D  0D2F               	rlf	??___ftdiv+2,w
  4910  042E  00B0               	movwf	??___ftdiv+3
  4911  042F  0830               	movf	??___ftdiv+3,w
  4912  0430  00B6               	movwf	___ftdiv@sign
  4913  0431  0836               	movf	___ftdiv@sign,w
  4914  0432  1D03               	btfss	3,2
  4915  0433  2C3B               	goto	i1l1563
  4916  0434  3000               	movlw	0
  4917  0435  00A7               	movwf	?___ftdiv
  4918  0436  3000               	movlw	0
  4919  0437  00A8               	movwf	?___ftdiv+1
  4920  0438  3000               	movlw	0
  4921  0439  00A9               	movwf	?___ftdiv+2
  4922  043A  0008               	return
  4923  043B                     i1l1563:	
  4924  043B  3000               	movlw	0
  4925  043C  00B2               	movwf	___ftdiv@f3
  4926  043D  3000               	movlw	0
  4927  043E  00B3               	movwf	___ftdiv@f3+1
  4928  043F  3000               	movlw	0
  4929  0440  00B4               	movwf	___ftdiv@f3+2
  4930  0441  3089               	movlw	137
  4931  0442  0736               	addwf	___ftdiv@sign,w
  4932  0443  00AD               	movwf	??___ftdiv
  4933  0444  082D               	movf	??___ftdiv,w
  4934  0445  02B5               	subwf	___ftdiv@exp,f
  4935  0446  082A               	movf	___ftdiv@f1,w
  4936  0447  00AD               	movwf	??___ftdiv
  4937  0448  082B               	movf	___ftdiv@f1+1,w
  4938  0449  00AE               	movwf	??___ftdiv+1
  4939  044A  082C               	movf	___ftdiv@f1+2,w
  4940  044B  00AF               	movwf	??___ftdiv+2
  4941  044C  3010               	movlw	16
  4942  044D                     u138_25:	
  4943  044D  36AF               	lsrf	??___ftdiv+2,f
  4944  044E  0CAE               	rrf	??___ftdiv+1,f
  4945  044F  0CAD               	rrf	??___ftdiv,f
  4946  0450  0B89               	decfsz	9,f
  4947  0451  2C4D               	goto	u138_25
  4948  0452  082D               	movf	??___ftdiv,w
  4949  0453  00B0               	movwf	??___ftdiv+3
  4950  0454  0830               	movf	??___ftdiv+3,w
  4951  0455  00B6               	movwf	___ftdiv@sign
  4952  0456  0827               	movf	___ftdiv@f2,w
  4953  0457  00AD               	movwf	??___ftdiv
  4954  0458  0828               	movf	___ftdiv@f2+1,w
  4955  0459  00AE               	movwf	??___ftdiv+1
  4956  045A  0829               	movf	___ftdiv@f2+2,w
  4957  045B  00AF               	movwf	??___ftdiv+2
  4958  045C  3010               	movlw	16
  4959  045D                     u139_25:	
  4960  045D  36AF               	lsrf	??___ftdiv+2,f
  4961  045E  0CAE               	rrf	??___ftdiv+1,f
  4962  045F  0CAD               	rrf	??___ftdiv,f
  4963  0460  0B89               	decfsz	9,f
  4964  0461  2C5D               	goto	u139_25
  4965  0462  082D               	movf	??___ftdiv,w
  4966  0463  00B0               	movwf	??___ftdiv+3
  4967  0464  0830               	movf	??___ftdiv+3,w
  4968  0465  06B6               	xorwf	___ftdiv@sign,f
  4969  0466  3080               	movlw	128
  4970  0467  00AD               	movwf	??___ftdiv
  4971  0468  082D               	movf	??___ftdiv,w
  4972  0469  05B6               	andwf	___ftdiv@sign,f
  4973  046A  17AB               	bsf	___ftdiv@f1+1,7
  4974  046B  30FF               	movlw	255
  4975  046C  05AA               	andwf	___ftdiv@f1,f
  4976  046D  30FF               	movlw	255
  4977  046E  05AB               	andwf	___ftdiv@f1+1,f
  4978  046F  3000               	movlw	0
  4979  0470  05AC               	andwf	___ftdiv@f1+2,f
  4980  0471  17A8               	bsf	___ftdiv@f2+1,7
  4981  0472  30FF               	movlw	255
  4982  0473  05A7               	andwf	___ftdiv@f2,f
  4983  0474  30FF               	movlw	255
  4984  0475  05A8               	andwf	___ftdiv@f2+1,f
  4985  0476  3000               	movlw	0
  4986  0477  05A9               	andwf	___ftdiv@f2+2,f
  4987  0478  3018               	movlw	24
  4988  0479  00AD               	movwf	??___ftdiv
  4989  047A  082D               	movf	??___ftdiv,w
  4990  047B  00B1               	movwf	___ftdiv@cntr
  4991  047C                     i1l1577:	
  4992  047C  3001               	movlw	1
  4993  047D                     u140_25:	
  4994  047D  35B2               	lslf	___ftdiv@f3,f
  4995  047E  0DB3               	rlf	___ftdiv@f3+1,f
  4996  047F  0DB4               	rlf	___ftdiv@f3+2,f
  4997  0480  0B89               	decfsz	9,f
  4998  0481  2C7D               	goto	u140_25
  4999  0482  0829               	movf	___ftdiv@f2+2,w
  5000  0483  022C               	subwf	___ftdiv@f1+2,w
  5001  0484  1D03               	skipz
  5002  0485  2C8C               	goto	u141_25
  5003  0486  0828               	movf	___ftdiv@f2+1,w
  5004  0487  022B               	subwf	___ftdiv@f1+1,w
  5005  0488  1D03               	skipz
  5006  0489  2C8C               	goto	u141_25
  5007  048A  0827               	movf	___ftdiv@f2,w
  5008  048B  022A               	subwf	___ftdiv@f1,w
  5009  048C                     u141_25:	
  5010  048C  1C03               	skipc
  5011  048D  2C95               	goto	i1l1585
  5012  048E  0827               	movf	___ftdiv@f2,w
  5013  048F  02AA               	subwf	___ftdiv@f1,f
  5014  0490  0828               	movf	___ftdiv@f2+1,w
  5015  0491  3BAB               	subwfb	___ftdiv@f1+1,f
  5016  0492  0829               	movf	___ftdiv@f2+2,w
  5017  0493  3BAC               	subwfb	___ftdiv@f1+2,f
  5018  0494  1432               	bsf	___ftdiv@f3,0
  5019  0495                     i1l1585:	
  5020  0495  3001               	movlw	1
  5021  0496                     u142_25:	
  5022  0496  35AA               	lslf	___ftdiv@f1,f
  5023  0497  0DAB               	rlf	___ftdiv@f1+1,f
  5024  0498  0DAC               	rlf	___ftdiv@f1+2,f
  5025  0499  0B89               	decfsz	9,f
  5026  049A  2C96               	goto	u142_25
  5027  049B  3001               	movlw	1
  5028  049C  02B1               	subwf	___ftdiv@cntr,f
  5029  049D  1D03               	btfss	3,2
  5030  049E  2C7C               	goto	i1l1577
  5031  049F  0832               	movf	___ftdiv@f3,w
  5032  04A0  00F0               	movwf	___ftpack@arg
  5033  04A1  0833               	movf	___ftdiv@f3+1,w
  5034  04A2  00F1               	movwf	___ftpack@arg+1
  5035  04A3  0834               	movf	___ftdiv@f3+2,w
  5036  04A4  00F2               	movwf	___ftpack@arg+2
  5037  04A5  0835               	movf	___ftdiv@exp,w
  5038  04A6  00AD               	movwf	??___ftdiv
  5039  04A7  082D               	movf	??___ftdiv,w
  5040  04A8  00F3               	movwf	___ftpack@exp
  5041  04A9  0836               	movf	___ftdiv@sign,w
  5042  04AA  00AE               	movwf	??___ftdiv+1
  5043  04AB  082E               	movf	??___ftdiv+1,w
  5044  04AC  00F4               	movwf	___ftpack@sign
  5045  04AD  3185  253E         	fcall	___ftpack
  5046  04AF  0870               	movf	?___ftpack,w
  5047  04B0  0140               	movlb	0	; select bank0
  5048  04B1  00A7               	movwf	?___ftdiv
  5049  04B2  0871               	movf	?___ftpack+1,w
  5050  04B3  00A8               	movwf	?___ftdiv+1
  5051  04B4  0872               	movf	?___ftpack+2,w
  5052  04B5  00A9               	movwf	?___ftdiv+2
  5053  04B6  0008               	return
  5054  04B7                     __end_of___ftdiv:	
  5055                           
  5056                           	psect	text14
  5057  0265                     __ptext14:	
  5058 ;; *************** function ___ftadd *****************
  5059 ;; Defined at:
  5060 ;;		line 86 in file "C:\Program Files (x86)\Microchip\xc8\v1.41\sources\common\ftadd.c"
  5061 ;; Parameters:    Size  Location     Type
  5062 ;;  f1              3    8[COMMON] float 
  5063 ;;  f2              3   11[COMMON] float 
  5064 ;; Auto vars:     Size  Location     Type
  5065 ;;  exp1            1    6[BANK0 ] unsigned char 
  5066 ;;  exp2            1    5[BANK0 ] unsigned char 
  5067 ;;  sign            1    4[BANK0 ] unsigned char 
  5068 ;; Return value:  Size  Location     Type
  5069 ;;                  3    8[COMMON] float 
  5070 ;; Registers used:
  5071 ;;		wreg, status,2, status,0, pclath, cstack
  5072 ;; Tracked objects:
  5073 ;;		On entry : 0/0
  5074 ;;		On exit  : 0/0
  5075 ;;		Unchanged: 0/0
  5076 ;; Data sizes:     COMMON   BANK0   BANK1   BANK2   BANK3   BANK4   BANK5   BANK6   BANK7   BANK8   BANK9  BANK10  BANK1
      +1  BANK12
  5077 ;;      Params:         6       0       0       0       0       0       0       0       0       0       0       0       
      +0       0
  5078 ;;      Locals:         0       3       0       0       0       0       0       0       0       0       0       0       
      +0       0
  5079 ;;      Temps:          0       4       0       0       0       0       0       0       0       0       0       0       
      +0       0
  5080 ;;      Totals:         6       7       0       0       0       0       0       0       0       0       0       0       
      +0       0
  5081 ;;Total ram usage:       13 bytes
  5082 ;; Hardware stack levels used:    1
  5083 ;; Hardware stack levels required when called:    1
  5084 ;; This function calls:
  5085 ;;		___ftpack
  5086 ;; This function is called by:
  5087 ;;		_I2C1_StatusCallback
  5088 ;; This function uses a non-reentrant model
  5089 ;;
  5090                           
  5091                           
  5092                           ;psect for function ___ftadd
  5093  0265                     ___ftadd:	
  5094                           
  5095                           ;incstack = 0
  5096                           ; Regs used in ___ftadd: [wreg+status,2+status,0+pclath+cstack]
  5097  0265  0878               	movf	___ftadd@f1,w
  5098  0266  0140               	movlb	0	; select bank0
  5099  0267  00A0               	movwf	??___ftadd
  5100  0268  0879               	movf	___ftadd@f1+1,w
  5101  0269  00A1               	movwf	??___ftadd+1
  5102  026A  087A               	movf	___ftadd@f1+2,w
  5103  026B  00A2               	movwf	??___ftadd+2
  5104  026C  1003               	clrc
  5105  026D  0D21               	rlf	??___ftadd+1,w
  5106  026E  0D22               	rlf	??___ftadd+2,w
  5107  026F  00A3               	movwf	??___ftadd+3
  5108  0270  0823               	movf	??___ftadd+3,w
  5109  0271  00A6               	movwf	___ftadd@exp1
  5110  0272  087B               	movf	___ftadd@f2,w
  5111  0273  00A0               	movwf	??___ftadd
  5112  0274  087C               	movf	___ftadd@f2+1,w
  5113  0275  00A1               	movwf	??___ftadd+1
  5114  0276  087D               	movf	___ftadd@f2+2,w
  5115  0277  00A2               	movwf	??___ftadd+2
  5116  0278  1003               	clrc
  5117  0279  0D21               	rlf	??___ftadd+1,w
  5118  027A  0D22               	rlf	??___ftadd+2,w
  5119  027B  00A3               	movwf	??___ftadd+3
  5120  027C  0823               	movf	??___ftadd+3,w
  5121  027D  00A5               	movwf	___ftadd@exp2
  5122  027E  0826               	movf	___ftadd@exp1,w
  5123  027F  1903               	btfsc	3,2
  5124  0280  2A8D               	goto	i1l1487
  5125  0281  0825               	movf	___ftadd@exp2,w
  5126  0282  0226               	subwf	___ftadd@exp1,w
  5127  0283  1803               	skipnc
  5128  0284  2A94               	goto	i1l1491
  5129  0285  0326               	decf	___ftadd@exp1,w
  5130  0286  3AFF               	xorlw	255
  5131  0287  0725               	addwf	___ftadd@exp2,w
  5132  0288  00A0               	movwf	??___ftadd
  5133  0289  3019               	movlw	25
  5134  028A  0220               	subwf	??___ftadd,w
  5135  028B  1C03               	skipc
  5136  028C  2A94               	goto	i1l1491
  5137  028D                     i1l1487:	
  5138  028D  087B               	movf	___ftadd@f2,w
  5139  028E  00F8               	movwf	?___ftadd
  5140  028F  087C               	movf	___ftadd@f2+1,w
  5141  0290  00F9               	movwf	?___ftadd+1
  5142  0291  087D               	movf	___ftadd@f2+2,w
  5143  0292  00FA               	movwf	?___ftadd+2
  5144  0293  0008               	return
  5145  0294                     i1l1491:	
  5146  0294  0825               	movf	___ftadd@exp2,w
  5147  0295  1903               	btfsc	3,2
  5148  0296  0008               	return
  5149  0297  0826               	movf	___ftadd@exp1,w
  5150  0298  0225               	subwf	___ftadd@exp2,w
  5151  0299  1803               	skipnc
  5152  029A  2AA3               	goto	i1l1497
  5153  029B  0325               	decf	___ftadd@exp2,w
  5154  029C  3AFF               	xorlw	255
  5155  029D  0726               	addwf	___ftadd@exp1,w
  5156  029E  00A0               	movwf	??___ftadd
  5157  029F  3019               	movlw	25
  5158  02A0  0220               	subwf	??___ftadd,w
  5159  02A1  1803               	btfsc	3,0
  5160  02A2  0008               	return
  5161  02A3                     i1l1497:	
  5162  02A3  3006               	movlw	6
  5163  02A4  00A0               	movwf	??___ftadd
  5164  02A5  0820               	movf	??___ftadd,w
  5165  02A6  00A4               	movwf	___ftadd@sign
  5166  02A7  1BFA               	btfsc	___ftadd@f1+2,7
  5167  02A8  17A4               	bsf	___ftadd@sign,7
  5168  02A9  1BFD               	btfsc	___ftadd@f2+2,7
  5169  02AA  1724               	bsf	___ftadd@sign,6
  5170  02AB  17F9               	bsf	___ftadd@f1+1,7
  5171  02AC  30FF               	movlw	255
  5172  02AD  05F8               	andwf	___ftadd@f1,f
  5173  02AE  30FF               	movlw	255
  5174  02AF  05F9               	andwf	___ftadd@f1+1,f
  5175  02B0  3000               	movlw	0
  5176  02B1  05FA               	andwf	___ftadd@f1+2,f
  5177  02B2  17FC               	bsf	___ftadd@f2+1,7
  5178  02B3  30FF               	movlw	255
  5179  02B4  05FB               	andwf	___ftadd@f2,f
  5180  02B5  30FF               	movlw	255
  5181  02B6  05FC               	andwf	___ftadd@f2+1,f
  5182  02B7  3000               	movlw	0
  5183  02B8  05FD               	andwf	___ftadd@f2+2,f
  5184  02B9  0825               	movf	___ftadd@exp2,w
  5185  02BA  0226               	subwf	___ftadd@exp1,w
  5186  02BB  1803               	skipnc
  5187  02BC  2ADF               	goto	i1l1519
  5188  02BD                     i1l1509:	
  5189  02BD  3001               	movlw	1
  5190  02BE                     u122_25:	
  5191  02BE  35FB               	lslf	___ftadd@f2,f
  5192  02BF  0DFC               	rlf	___ftadd@f2+1,f
  5193  02C0  0DFD               	rlf	___ftadd@f2+2,f
  5194  02C1  0B89               	decfsz	9,f
  5195  02C2  2ABE               	goto	u122_25
  5196  02C3  3001               	movlw	1
  5197  02C4  02A5               	subwf	___ftadd@exp2,f
  5198  02C5  0825               	movf	___ftadd@exp2,w
  5199  02C6  0626               	xorwf	___ftadd@exp1,w
  5200  02C7  1903               	skipnz
  5201  02C8  2ADA               	goto	i1l1517
  5202  02C9  3001               	movlw	1
  5203  02CA  02A4               	subwf	___ftadd@sign,f
  5204  02CB  0824               	movf	___ftadd@sign,w
  5205  02CC  3907               	andlw	7
  5206  02CD  1903               	btfsc	3,2
  5207  02CE  2ADA               	goto	i1l1517
  5208  02CF  2ABD               	goto	i1l1509
  5209  02D0                     i1l1515:	
  5210  02D0  3001               	movlw	1
  5211  02D1                     u125_25:	
  5212  02D1  36FA               	lsrf	___ftadd@f1+2,f
  5213  02D2  0CF9               	rrf	___ftadd@f1+1,f
  5214  02D3  0CF8               	rrf	___ftadd@f1,f
  5215  02D4  0B89               	decfsz	9,f
  5216  02D5  2AD1               	goto	u125_25
  5217  02D6  3001               	movlw	1
  5218  02D7  00A0               	movwf	??___ftadd
  5219  02D8  0820               	movf	??___ftadd,w
  5220  02D9  07A6               	addwf	___ftadd@exp1,f
  5221  02DA                     i1l1517:	
  5222  02DA  0826               	movf	___ftadd@exp1,w
  5223  02DB  0625               	xorwf	___ftadd@exp2,w
  5224  02DC  1903               	btfsc	3,2
  5225  02DD  2B04               	goto	i1l635
  5226  02DE  2AD0               	goto	i1l1515
  5227  02DF                     i1l1519:	
  5228  02DF  0826               	movf	___ftadd@exp1,w
  5229  02E0  0225               	subwf	___ftadd@exp2,w
  5230  02E1  1803               	skipnc
  5231  02E2  2B04               	goto	i1l635
  5232  02E3                     i1l1521:	
  5233  02E3  3001               	movlw	1
  5234  02E4                     u128_25:	
  5235  02E4  35F8               	lslf	___ftadd@f1,f
  5236  02E5  0DF9               	rlf	___ftadd@f1+1,f
  5237  02E6  0DFA               	rlf	___ftadd@f1+2,f
  5238  02E7  0B89               	decfsz	9,f
  5239  02E8  2AE4               	goto	u128_25
  5240  02E9  3001               	movlw	1
  5241  02EA  02A6               	subwf	___ftadd@exp1,f
  5242  02EB  0825               	movf	___ftadd@exp2,w
  5243  02EC  0626               	xorwf	___ftadd@exp1,w
  5244  02ED  1903               	skipnz
  5245  02EE  2B00               	goto	i1l1529
  5246  02EF  3001               	movlw	1
  5247  02F0  02A4               	subwf	___ftadd@sign,f
  5248  02F1  0824               	movf	___ftadd@sign,w
  5249  02F2  3907               	andlw	7
  5250  02F3  1903               	btfsc	3,2
  5251  02F4  2B00               	goto	i1l1529
  5252  02F5  2AE3               	goto	i1l1521
  5253  02F6                     i1l1527:	
  5254  02F6  3001               	movlw	1
  5255  02F7                     u131_25:	
  5256  02F7  36FD               	lsrf	___ftadd@f2+2,f
  5257  02F8  0CFC               	rrf	___ftadd@f2+1,f
  5258  02F9  0CFB               	rrf	___ftadd@f2,f
  5259  02FA  0B89               	decfsz	9,f
  5260  02FB  2AF7               	goto	u131_25
  5261  02FC  3001               	movlw	1
  5262  02FD  00A0               	movwf	??___ftadd
  5263  02FE  0820               	movf	??___ftadd,w
  5264  02FF  07A5               	addwf	___ftadd@exp2,f
  5265  0300                     i1l1529:	
  5266  0300  0826               	movf	___ftadd@exp1,w
  5267  0301  0625               	xorwf	___ftadd@exp2,w
  5268  0302  1D03               	skipz
  5269  0303  2AF6               	goto	i1l1527
  5270  0304                     i1l635:	
  5271  0304  1FA4               	btfss	___ftadd@sign,7
  5272  0305  2B16               	goto	i1l1533
  5273  0306  30FF               	movlw	255
  5274  0307  06F8               	xorwf	___ftadd@f1,f
  5275  0308  30FF               	movlw	255
  5276  0309  06F9               	xorwf	___ftadd@f1+1,f
  5277  030A  30FF               	movlw	255
  5278  030B  06FA               	xorwf	___ftadd@f1+2,f
  5279  030C  3001               	movlw	1
  5280  030D  07F8               	addwf	___ftadd@f1,f
  5281  030E  3000               	movlw	0
  5282  030F  1803               	skipnc
  5283  0310  3001               	movlw	1
  5284  0311  07F9               	addwf	___ftadd@f1+1,f
  5285  0312  3000               	movlw	0
  5286  0313  1803               	skipnc
  5287  0314  3001               	movlw	1
  5288  0315  07FA               	addwf	___ftadd@f1+2,f
  5289  0316                     i1l1533:	
  5290  0316  1F24               	btfss	___ftadd@sign,6
  5291  0317  2B28               	goto	i1l1537
  5292  0318  30FF               	movlw	255
  5293  0319  06FB               	xorwf	___ftadd@f2,f
  5294  031A  30FF               	movlw	255
  5295  031B  06FC               	xorwf	___ftadd@f2+1,f
  5296  031C  30FF               	movlw	255
  5297  031D  06FD               	xorwf	___ftadd@f2+2,f
  5298  031E  3001               	movlw	1
  5299  031F  07FB               	addwf	___ftadd@f2,f
  5300  0320  3000               	movlw	0
  5301  0321  1803               	skipnc
  5302  0322  3001               	movlw	1
  5303  0323  07FC               	addwf	___ftadd@f2+1,f
  5304  0324  3000               	movlw	0
  5305  0325  1803               	skipnc
  5306  0326  3001               	movlw	1
  5307  0327  07FD               	addwf	___ftadd@f2+2,f
  5308  0328                     i1l1537:	
  5309  0328  01A4               	clrf	___ftadd@sign
  5310  0329  0878               	movf	___ftadd@f1,w
  5311  032A  07FB               	addwf	___ftadd@f2,f
  5312  032B  0879               	movf	___ftadd@f1+1,w
  5313  032C  3DFC               	addwfc	___ftadd@f2+1,f
  5314  032D  087A               	movf	___ftadd@f1+2,w
  5315  032E  3DFD               	addwfc	___ftadd@f2+2,f
  5316  032F  1FFD               	btfss	___ftadd@f2+2,7
  5317  0330  2B43               	goto	i1l1547
  5318  0331  30FF               	movlw	255
  5319  0332  06FB               	xorwf	___ftadd@f2,f
  5320  0333  30FF               	movlw	255
  5321  0334  06FC               	xorwf	___ftadd@f2+1,f
  5322  0335  30FF               	movlw	255
  5323  0336  06FD               	xorwf	___ftadd@f2+2,f
  5324  0337  3001               	movlw	1
  5325  0338  07FB               	addwf	___ftadd@f2,f
  5326  0339  3000               	movlw	0
  5327  033A  1803               	skipnc
  5328  033B  3001               	movlw	1
  5329  033C  07FC               	addwf	___ftadd@f2+1,f
  5330  033D  3000               	movlw	0
  5331  033E  1803               	skipnc
  5332  033F  3001               	movlw	1
  5333  0340  07FD               	addwf	___ftadd@f2+2,f
  5334  0341  01A4               	clrf	___ftadd@sign
  5335  0342  0AA4               	incf	___ftadd@sign,f
  5336  0343                     i1l1547:	
  5337  0343  087B               	movf	___ftadd@f2,w
  5338  0344  00F0               	movwf	___ftpack@arg
  5339  0345  087C               	movf	___ftadd@f2+1,w
  5340  0346  00F1               	movwf	___ftpack@arg+1
  5341  0347  087D               	movf	___ftadd@f2+2,w
  5342  0348  00F2               	movwf	___ftpack@arg+2
  5343  0349  0826               	movf	___ftadd@exp1,w
  5344  034A  00A0               	movwf	??___ftadd
  5345  034B  0820               	movf	??___ftadd,w
  5346  034C  00F3               	movwf	___ftpack@exp
  5347  034D  0824               	movf	___ftadd@sign,w
  5348  034E  00A1               	movwf	??___ftadd+1
  5349  034F  0821               	movf	??___ftadd+1,w
  5350  0350  00F4               	movwf	___ftpack@sign
  5351  0351  3185  253E         	fcall	___ftpack
  5352  0353  0870               	movf	?___ftpack,w
  5353  0354  00F8               	movwf	?___ftadd
  5354  0355  0871               	movf	?___ftpack+1,w
  5355  0356  00F9               	movwf	?___ftadd+1
  5356  0357  0872               	movf	?___ftpack+2,w
  5357  0358  00FA               	movwf	?___ftadd+2
  5358  0359  0008               	return
  5359  035A                     __end_of___ftadd:	
  5360                           
  5361                           	psect	text15
  5362  0698                     __ptext15:	
  5363 ;; *************** function ___awtoft *****************
  5364 ;; Defined at:
  5365 ;;		line 32 in file "C:\Program Files (x86)\Microchip\xc8\v1.41\sources\common\awtoft.c"
  5366 ;; Parameters:    Size  Location     Type
  5367 ;;  c               2    8[COMMON] int 
  5368 ;; Auto vars:     Size  Location     Type
  5369 ;;  sign            1   13[COMMON] unsigned char 
  5370 ;; Return value:  Size  Location     Type
  5371 ;;                  3    8[COMMON] float 
  5372 ;; Registers used:
  5373 ;;		wreg, status,2, status,0, pclath, cstack
  5374 ;; Tracked objects:
  5375 ;;		On entry : 0/0
  5376 ;;		On exit  : 0/0
  5377 ;;		Unchanged: 0/0
  5378 ;; Data sizes:     COMMON   BANK0   BANK1   BANK2   BANK3   BANK4   BANK5   BANK6   BANK7   BANK8   BANK9  BANK10  BANK1
      +1  BANK12
  5379 ;;      Params:         3       0       0       0       0       0       0       0       0       0       0       0       
      +0       0
  5380 ;;      Locals:         1       0       0       0       0       0       0       0       0       0       0       0       
      +0       0
  5381 ;;      Temps:          2       0       0       0       0       0       0       0       0       0       0       0       
      +0       0
  5382 ;;      Totals:         6       0       0       0       0       0       0       0       0       0       0       0       
      +0       0
  5383 ;;Total ram usage:        6 bytes
  5384 ;; Hardware stack levels used:    1
  5385 ;; Hardware stack levels required when called:    1
  5386 ;; This function calls:
  5387 ;;		___ftpack
  5388 ;; This function is called by:
  5389 ;;		_I2C1_StatusCallback
  5390 ;; This function uses a non-reentrant model
  5391 ;;
  5392                           
  5393                           
  5394                           ;psect for function ___awtoft
  5395  0698                     ___awtoft:	
  5396                           
  5397                           ;incstack = 0
  5398                           ; Regs used in ___awtoft: [wreg+status,2+status,0+pclath+cstack]
  5399  0698  01FD               	clrf	___awtoft@sign
  5400  0699  1FF9               	btfss	___awtoft@c+1,7
  5401  069A  2EA2               	goto	i1l1477
  5402  069B  09F8               	comf	___awtoft@c,f
  5403  069C  09F9               	comf	___awtoft@c+1,f
  5404  069D  0AF8               	incf	___awtoft@c,f
  5405  069E  1903               	skipnz
  5406  069F  0AF9               	incf	___awtoft@c+1,f
  5407  06A0  01FD               	clrf	___awtoft@sign
  5408  06A1  0AFD               	incf	___awtoft@sign,f
  5409  06A2                     i1l1477:	
  5410  06A2  0878               	movf	___awtoft@c,w
  5411  06A3  00F0               	movwf	___ftpack@arg
  5412  06A4  0879               	movf	___awtoft@c+1,w
  5413  06A5  00F1               	movwf	___ftpack@arg+1
  5414  06A6  01F2               	clrf	___ftpack@arg+2
  5415  06A7  308E               	movlw	142
  5416  06A8  00FB               	movwf	??___awtoft
  5417  06A9  087B               	movf	??___awtoft,w
  5418  06AA  00F3               	movwf	___ftpack@exp
  5419  06AB  087D               	movf	___awtoft@sign,w
  5420  06AC  00FC               	movwf	??___awtoft+1
  5421  06AD  087C               	movf	??___awtoft+1,w
  5422  06AE  00F4               	movwf	___ftpack@sign
  5423  06AF  3185  253E         	fcall	___ftpack
  5424  06B1  0870               	movf	?___ftpack,w
  5425  06B2  00F8               	movwf	?___awtoft
  5426  06B3  0871               	movf	?___ftpack+1,w
  5427  06B4  00F9               	movwf	?___awtoft+1
  5428  06B5  0872               	movf	?___ftpack+2,w
  5429  06B6  00FA               	movwf	?___awtoft+2
  5430  06B7  0008               	return
  5431  06B8                     __end_of___awtoft:	
  5432                           
  5433                           	psect	text16
  5434  053E                     __ptext16:	
  5435 ;; *************** function ___ftpack *****************
  5436 ;; Defined at:
  5437 ;;		line 62 in file "C:\Program Files (x86)\Microchip\xc8\v1.41\sources\common\float.c"
  5438 ;; Parameters:    Size  Location     Type
  5439 ;;  arg             3    0[COMMON] unsigned um
  5440 ;;  exp             1    3[COMMON] unsigned char 
  5441 ;;  sign            1    4[COMMON] unsigned char 
  5442 ;; Auto vars:     Size  Location     Type
  5443 ;;		None
  5444 ;; Return value:  Size  Location     Type
  5445 ;;                  3    0[COMMON] float 
  5446 ;; Registers used:
  5447 ;;		wreg, status,2, status,0
  5448 ;; Tracked objects:
  5449 ;;		On entry : 0/0
  5450 ;;		On exit  : 0/0
  5451 ;;		Unchanged: 0/0
  5452 ;; Data sizes:     COMMON   BANK0   BANK1   BANK2   BANK3   BANK4   BANK5   BANK6   BANK7   BANK8   BANK9  BANK10  BANK1
      +1  BANK12
  5453 ;;      Params:         5       0       0       0       0       0       0       0       0       0       0       0       
      +0       0
  5454 ;;      Locals:         0       0       0       0       0       0       0       0       0       0       0       0       
      +0       0
  5455 ;;      Temps:          3       0       0       0       0       0       0       0       0       0       0       0       
      +0       0
  5456 ;;      Totals:         8       0       0       0       0       0       0       0       0       0       0       0       
      +0       0
  5457 ;;Total ram usage:        8 bytes
  5458 ;; Hardware stack levels used:    1
  5459 ;; This function calls:
  5460 ;;		Nothing
  5461 ;; This function is called by:
  5462 ;;		___awtoft
  5463 ;;		___ftadd
  5464 ;;		___ftdiv
  5465 ;;		___ftmul
  5466 ;; This function uses a non-reentrant model
  5467 ;;
  5468                           
  5469                           
  5470                           ;psect for function ___ftpack
  5471  053E                     ___ftpack:	
  5472                           
  5473                           ;incstack = 0
  5474                           ; Regs used in ___ftpack: [wreg+status,2+status,0]
  5475  053E  0873               	movf	___ftpack@exp,w
  5476  053F  1903               	btfsc	3,2
  5477  0540  2D46               	goto	i1l1407
  5478  0541  0872               	movf	___ftpack@arg+2,w
  5479  0542  0471               	iorwf	___ftpack@arg+1,w
  5480  0543  0470               	iorwf	___ftpack@arg,w
  5481  0544  1D03               	skipz
  5482  0545  2D57               	goto	i1l1413
  5483  0546                     i1l1407:	
  5484  0546  3000               	movlw	0
  5485  0547  00F0               	movwf	?___ftpack
  5486  0548  3000               	movlw	0
  5487  0549  00F1               	movwf	?___ftpack+1
  5488  054A  3000               	movlw	0
  5489  054B  00F2               	movwf	?___ftpack+2
  5490  054C  0008               	return
  5491  054D                     i1l1411:	
  5492  054D  3001               	movlw	1
  5493  054E  00F5               	movwf	??___ftpack
  5494  054F  0875               	movf	??___ftpack,w
  5495  0550  07F3               	addwf	___ftpack@exp,f
  5496  0551  3001               	movlw	1
  5497  0552                     u97_25:	
  5498  0552  36F2               	lsrf	___ftpack@arg+2,f
  5499  0553  0CF1               	rrf	___ftpack@arg+1,f
  5500  0554  0CF0               	rrf	___ftpack@arg,f
  5501  0555  0B89               	decfsz	9,f
  5502  0556  2D52               	goto	u97_25
  5503  0557                     i1l1413:	
  5504  0557  30FE               	movlw	254
  5505  0558  0572               	andwf	___ftpack@arg+2,w
  5506  0559  1903               	btfsc	3,2
  5507  055A  2D70               	goto	i1l604
  5508  055B  2D4D               	goto	i1l1411
  5509  055C                     i1l1415:	
  5510  055C  3001               	movlw	1
  5511  055D  00F5               	movwf	??___ftpack
  5512  055E  0875               	movf	??___ftpack,w
  5513  055F  07F3               	addwf	___ftpack@exp,f
  5514  0560  3001               	movlw	1
  5515  0561  07F0               	addwf	___ftpack@arg,f
  5516  0562  3000               	movlw	0
  5517  0563  1803               	skipnc
  5518  0564  3001               	movlw	1
  5519  0565  07F1               	addwf	___ftpack@arg+1,f
  5520  0566  3000               	movlw	0
  5521  0567  1803               	skipnc
  5522  0568  3001               	movlw	1
  5523  0569  07F2               	addwf	___ftpack@arg+2,f
  5524  056A  3001               	movlw	1
  5525  056B                     u99_25:	
  5526  056B  36F2               	lsrf	___ftpack@arg+2,f
  5527  056C  0CF1               	rrf	___ftpack@arg+1,f
  5528  056D  0CF0               	rrf	___ftpack@arg,f
  5529  056E  0B89               	decfsz	9,f
  5530  056F  2D6B               	goto	u99_25
  5531  0570                     i1l604:	
  5532  0570  30FF               	movlw	255
  5533  0571  0572               	andwf	___ftpack@arg+2,w
  5534  0572  1903               	btfsc	3,2
  5535  0573  2D7D               	goto	i1l1423
  5536  0574  2D5C               	goto	i1l1415
  5537  0575                     i1l1421:	
  5538  0575  3001               	movlw	1
  5539  0576  02F3               	subwf	___ftpack@exp,f
  5540  0577  3001               	movlw	1
  5541  0578                     u101_25:	
  5542  0578  35F0               	lslf	___ftpack@arg,f
  5543  0579  0DF1               	rlf	___ftpack@arg+1,f
  5544  057A  0DF2               	rlf	___ftpack@arg+2,f
  5545  057B  0B89               	decfsz	9,f
  5546  057C  2D78               	goto	u101_25
  5547  057D                     i1l1423:	
  5548  057D  1BF1               	btfsc	___ftpack@arg+1,7
  5549  057E  2D83               	goto	i1l611
  5550  057F  3002               	movlw	2
  5551  0580  0273               	subwf	___ftpack@exp,w
  5552  0581  1803               	skipnc
  5553  0582  2D75               	goto	i1l1421
  5554  0583                     i1l611:	
  5555  0583  1873               	btfsc	___ftpack@exp,0
  5556  0584  2D8B               	goto	i1l612
  5557  0585  30FF               	movlw	255
  5558  0586  05F0               	andwf	___ftpack@arg,f
  5559  0587  307F               	movlw	127
  5560  0588  05F1               	andwf	___ftpack@arg+1,f
  5561  0589  30FF               	movlw	255
  5562  058A  05F2               	andwf	___ftpack@arg+2,f
  5563  058B                     i1l612:	
  5564  058B  1003               	clrc
  5565  058C  0CF3               	rrf	___ftpack@exp,f
  5566  058D  0873               	movf	___ftpack@exp,w
  5567  058E  00F5               	movwf	??___ftpack
  5568  058F  01F6               	clrf	??___ftpack+1
  5569  0590  01F7               	clrf	??___ftpack+2
  5570  0591  3010               	movlw	16
  5571  0592                     u105_25:	
  5572  0592  35F5               	lslf	??___ftpack,f
  5573  0593  0DF6               	rlf	??___ftpack+1,f
  5574  0594  0DF7               	rlf	??___ftpack+2,f
  5575  0595  0B89               	decfsz	9,f
  5576  0596  2D92               	goto	u105_25
  5577  0597  0875               	movf	??___ftpack,w
  5578  0598  04F0               	iorwf	___ftpack@arg,f
  5579  0599  0876               	movf	??___ftpack+1,w
  5580  059A  04F1               	iorwf	___ftpack@arg+1,f
  5581  059B  0877               	movf	??___ftpack+2,w
  5582  059C  04F2               	iorwf	___ftpack@arg+2,f
  5583  059D  0874               	movf	___ftpack@sign,w
  5584  059E  1903               	btfsc	3,2
  5585  059F  0008               	return
  5586  05A0  17F2               	bsf	___ftpack@arg+2,7
  5587  05A1  0008               	return
  5588  05A2                     __end_of___ftpack:	
  5589                           
  5590                           	psect	text17
  5591  0652                     __ptext17:	
  5592 ;; *************** function _EUSART1_Write *****************
  5593 ;; Defined at:
  5594 ;;		line 118 in file "mcc_generated_files/eusart1.c"
  5595 ;; Parameters:    Size  Location     Type
  5596 ;;  txData          1    wreg     unsigned char 
  5597 ;; Auto vars:     Size  Location     Type
  5598 ;;  txData          1    1[COMMON] unsigned char 
  5599 ;; Return value:  Size  Location     Type
  5600 ;;                  1    wreg      void 
  5601 ;; Registers used:
  5602 ;;		wreg, fsr1l, fsr1h, status,2, status,0
  5603 ;; Tracked objects:
  5604 ;;		On entry : 0/0
  5605 ;;		On exit  : 0/0
  5606 ;;		Unchanged: 0/0
  5607 ;; Data sizes:     COMMON   BANK0   BANK1   BANK2   BANK3   BANK4   BANK5   BANK6   BANK7   BANK8   BANK9  BANK10  BANK1
      +1  BANK12
  5608 ;;      Params:         0       0       0       0       0       0       0       0       0       0       0       0       
      +0       0
  5609 ;;      Locals:         1       0       0       0       0       0       0       0       0       0       0       0       
      +0       0
  5610 ;;      Temps:          1       0       0       0       0       0       0       0       0       0       0       0       
      +0       0
  5611 ;;      Totals:         2       0       0       0       0       0       0       0       0       0       0       0       
      +0       0
  5612 ;;Total ram usage:        2 bytes
  5613 ;; Hardware stack levels used:    1
  5614 ;; This function calls:
  5615 ;;		Nothing
  5616 ;; This function is called by:
  5617 ;;		_I2C1_StatusCallback
  5618 ;; This function uses a non-reentrant model
  5619 ;;
  5620                           
  5621                           
  5622                           ;psect for function _EUSART1_Write
  5623  0652                     _EUSART1_Write:	
  5624                           
  5625                           ;incstack = 0
  5626                           ; Regs used in _EUSART1_Write: [wreg+fsr1l+fsr1h+status,2+status,0]
  5627                           ;EUSART1_Write@txData stored from wreg
  5628  0652  00F1               	movwf	EUSART1_Write@txData
  5629  0653                     i1l1437:	
  5630                           ;eusart1.c: 121: {
  5631                           
  5632                           ;eusart1.c: 120: while(0 == eusart1TxBufferRemaining)
  5633                           
  5634  0653  0141               	movlb	1	; select bank1
  5635  0654  086C               	movf	_eusart1TxBufferRemaining^(0+128),w
  5636  0655  1903               	btfsc	3,2
  5637  0656  2E53               	goto	i1l1437
  5638                           
  5639                           ;eusart1.c: 122: }
  5640                           ;eusart1.c: 124: if(0 == PIE3bits.TX1IE)
  5641  0657  014E               	movlb	14	; select bank14
  5642  0658  1A19               	btfsc	25,4	;volatile
  5643  0659  2E5E               	goto	i1l129
  5644                           
  5645                           ;eusart1.c: 125: {
  5646                           ;eusart1.c: 126: TX1REG = txData;
  5647  065A  0871               	movf	EUSART1_Write@txData,w
  5648  065B  0142               	movlb	2	; select bank2
  5649  065C  009A               	movwf	26	;volatile
  5650                           
  5651                           ;eusart1.c: 127: }
  5652  065D  2E73               	goto	i1l1451
  5653  065E                     i1l129:	
  5654                           
  5655                           ;eusart1.c: 128: else
  5656                           ;eusart1.c: 129: {
  5657                           ;eusart1.c: 130: PIE3bits.TX1IE = 0;
  5658  065E  1219               	bcf	25,4	;volatile
  5659                           
  5660                           ;eusart1.c: 131: eusart1TxBuffer[eusart1TxHead++] = txData;
  5661  065F  0871               	movf	EUSART1_Write@txData,w
  5662  0660  00F0               	movwf	??_EUSART1_Write
  5663  0661  0140               	movlb	0	; select bank0
  5664  0662  086E               	movf	_eusart1TxHead,w
  5665  0663  3EC0               	addlw	(low (_eusart1TxBuffer| 0))& (0+255)
  5666  0664  0086               	movwf	6
  5667  0665  0187               	clrf	7
  5668  0666  0870               	movf	??_EUSART1_Write,w
  5669  0667  0081               	movwf	1
  5670  0668  3001               	movlw	1
  5671  0669  00F0               	movwf	??_EUSART1_Write
  5672  066A  0870               	movf	??_EUSART1_Write,w
  5673  066B  07EE               	addwf	_eusart1TxHead,f
  5674                           
  5675                           ;eusart1.c: 132: if(sizeof(eusart1TxBuffer) <= eusart1TxHead)
  5676  066C  3008               	movlw	8
  5677  066D  026E               	subwf	_eusart1TxHead,w
  5678  066E  1803               	btfsc	3,0
  5679                           
  5680                           ;eusart1.c: 133: {
  5681                           ;eusart1.c: 134: eusart1TxHead = 0;
  5682  066F  01EE               	clrf	_eusart1TxHead
  5683                           
  5684                           ;eusart1.c: 135: }
  5685                           ;eusart1.c: 136: eusart1TxBufferRemaining--;
  5686  0670  3001               	movlw	1
  5687  0671  0141               	movlb	1	; select bank1
  5688  0672  02EC               	subwf	_eusart1TxBufferRemaining^(0+128),f
  5689  0673                     i1l1451:	
  5690                           
  5691                           ;eusart1.c: 137: }
  5692                           ;eusart1.c: 138: PIE3bits.TX1IE = 1;
  5693  0673  014E               	movlb	14	; select bank14
  5694  0674  1619               	bsf	25,4	;volatile
  5695  0675  0008               	return
  5696  0676                     __end_of_EUSART1_Write:	
  5697                           
  5698                           	psect	text18
  5699  06B8                     __ptext18:	
  5700 ;; *************** function _EUSART1_Transmit_ISR *****************
  5701 ;; Defined at:
  5702 ;;		line 141 in file "mcc_generated_files/eusart1.c"
  5703 ;; Parameters:    Size  Location     Type
  5704 ;;		None
  5705 ;; Auto vars:     Size  Location     Type
  5706 ;;		None
  5707 ;; Return value:  Size  Location     Type
  5708 ;;                  1    wreg      void 
  5709 ;; Registers used:
  5710 ;;		wreg, fsr1l, fsr1h, status,2, status,0
  5711 ;; Tracked objects:
  5712 ;;		On entry : 0/0
  5713 ;;		On exit  : 0/0
  5714 ;;		Unchanged: 0/0
  5715 ;; Data sizes:     COMMON   BANK0   BANK1   BANK2   BANK3   BANK4   BANK5   BANK6   BANK7   BANK8   BANK9  BANK10  BANK1
      +1  BANK12
  5716 ;;      Params:         0       0       0       0       0       0       0       0       0       0       0       0       
      +0       0
  5717 ;;      Locals:         0       0       0       0       0       0       0       0       0       0       0       0       
      +0       0
  5718 ;;      Temps:          1       0       0       0       0       0       0       0       0       0       0       0       
      +0       0
  5719 ;;      Totals:         1       0       0       0       0       0       0       0       0       0       0       0       
      +0       0
  5720 ;;Total ram usage:        1 bytes
  5721 ;; Hardware stack levels used:    1
  5722 ;; This function calls:
  5723 ;;		Nothing
  5724 ;; This function is called by:
  5725 ;;		_INTERRUPT_InterruptManager
  5726 ;; This function uses a non-reentrant model
  5727 ;;
  5728                           
  5729                           
  5730                           ;psect for function _EUSART1_Transmit_ISR
  5731  06B8                     _EUSART1_Transmit_ISR:	
  5732                           
  5733                           ;eusart1.c: 145: if(sizeof(eusart1TxBuffer) > eusart1TxBufferRemaining)
  5734                           
  5735                           ;incstack = 0
  5736                           ; Regs used in _EUSART1_Transmit_ISR: [wreg+fsr1l+fsr1h+status,2+status,0]
  5737  06B8  3008               	movlw	8
  5738  06B9  0141               	movlb	1	; select bank1
  5739  06BA  026C               	subwf	_eusart1TxBufferRemaining^(0+128),w
  5740  06BB  1803               	skipnc
  5741  06BC  2ED4               	goto	i1l135
  5742                           
  5743                           ;eusart1.c: 146: {
  5744                           ;eusart1.c: 147: TX1REG = eusart1TxBuffer[eusart1TxTail++];
  5745  06BD  0140               	movlb	0	; select bank0
  5746  06BE  086D               	movf	_eusart1TxTail,w
  5747  06BF  3EC0               	addlw	(low (_eusart1TxBuffer| 0))& (0+255)
  5748  06C0  0086               	movwf	6
  5749  06C1  0187               	clrf	7
  5750  06C2  0801               	movf	1,w
  5751  06C3  0142               	movlb	2	; select bank2
  5752  06C4  009A               	movwf	26	;volatile
  5753  06C5  3001               	movlw	1
  5754  06C6  00F0               	movwf	??_EUSART1_Transmit_ISR
  5755  06C7  0870               	movf	??_EUSART1_Transmit_ISR,w
  5756  06C8  0140               	movlb	0	; select bank0
  5757  06C9  07ED               	addwf	_eusart1TxTail,f
  5758                           
  5759                           ;eusart1.c: 148: if(sizeof(eusart1TxBuffer) <= eusart1TxTail)
  5760  06CA  3008               	movlw	8
  5761  06CB  026D               	subwf	_eusart1TxTail,w
  5762  06CC  1803               	btfsc	3,0
  5763                           
  5764                           ;eusart1.c: 149: {
  5765                           ;eusart1.c: 150: eusart1TxTail = 0;
  5766  06CD  01ED               	clrf	_eusart1TxTail
  5767                           
  5768                           ;eusart1.c: 151: }
  5769                           ;eusart1.c: 152: eusart1TxBufferRemaining++;
  5770  06CE  3001               	movlw	1
  5771  06CF  00F0               	movwf	??_EUSART1_Transmit_ISR
  5772  06D0  0870               	movf	??_EUSART1_Transmit_ISR,w
  5773  06D1  0141               	movlb	1	; select bank1
  5774  06D2  07EC               	addwf	_eusart1TxBufferRemaining^(0+128),f
  5775                           
  5776                           ;eusart1.c: 153: }
  5777  06D3  0008               	return
  5778  06D4                     i1l135:	
  5779                           
  5780                           ;eusart1.c: 154: else
  5781                           ;eusart1.c: 155: {
  5782                           ;eusart1.c: 156: PIE3bits.TX1IE = 0;
  5783  06D4  014E               	movlb	14	; select bank14
  5784  06D5  1219               	bcf	25,4	;volatile
  5785  06D6  0008               	return
  5786  06D7                     __end_of_EUSART1_Transmit_ISR:	
  5787                           
  5788                           	psect	text19
  5789  0623                     __ptext19:	
  5790 ;; *************** function _EUSART1_Receive_ISR *****************
  5791 ;; Defined at:
  5792 ;;		line 160 in file "mcc_generated_files/eusart1.c"
  5793 ;; Parameters:    Size  Location     Type
  5794 ;;		None
  5795 ;; Auto vars:     Size  Location     Type
  5796 ;;		None
  5797 ;; Return value:  Size  Location     Type
  5798 ;;                  1    wreg      void 
  5799 ;; Registers used:
  5800 ;;		wreg, fsr1l, fsr1h, status,2, status,0
  5801 ;; Tracked objects:
  5802 ;;		On entry : 0/0
  5803 ;;		On exit  : 0/0
  5804 ;;		Unchanged: 0/0
  5805 ;; Data sizes:     COMMON   BANK0   BANK1   BANK2   BANK3   BANK4   BANK5   BANK6   BANK7   BANK8   BANK9  BANK10  BANK1
      +1  BANK12
  5806 ;;      Params:         0       0       0       0       0       0       0       0       0       0       0       0       
      +0       0
  5807 ;;      Locals:         0       0       0       0       0       0       0       0       0       0       0       0       
      +0       0
  5808 ;;      Temps:          1       0       0       0       0       0       0       0       0       0       0       0       
      +0       0
  5809 ;;      Totals:         1       0       0       0       0       0       0       0       0       0       0       0       
      +0       0
  5810 ;;Total ram usage:        1 bytes
  5811 ;; Hardware stack levels used:    1
  5812 ;; This function calls:
  5813 ;;		Nothing
  5814 ;; This function is called by:
  5815 ;;		_INTERRUPT_InterruptManager
  5816 ;; This function uses a non-reentrant model
  5817 ;;
  5818                           
  5819                           
  5820                           ;psect for function _EUSART1_Receive_ISR
  5821  0623                     _EUSART1_Receive_ISR:	
  5822                           
  5823                           ;eusart1.c: 163: if(1 == RC1STAbits.OERR)
  5824                           
  5825                           ;incstack = 0
  5826                           ; Regs used in _EUSART1_Receive_ISR: [wreg+fsr1l+fsr1h+status,2+status,0]
  5827  0623  0142               	movlb	2	; select bank2
  5828  0624  1C9D               	btfss	29,1	;volatile
  5829  0625  2E28               	goto	i1l1907
  5830                           
  5831                           ;eusart1.c: 164: {
  5832                           ;eusart1.c: 167: RC1STAbits.CREN = 0;
  5833  0626  121D               	bcf	29,4	;volatile
  5834                           
  5835                           ;eusart1.c: 168: RC1STAbits.CREN = 1;
  5836  0627  161D               	bsf	29,4	;volatile
  5837  0628                     i1l1907:	
  5838                           
  5839                           ;eusart1.c: 169: }
  5840                           ;eusart1.c: 173: eusart1RxBuffer[eusart1RxHead++] = RC1REG;
  5841  0628  0819               	movf	25,w	;volatile
  5842  0629  00F0               	movwf	??_EUSART1_Receive_ISR
  5843  062A  0140               	movlb	0	; select bank0
  5844  062B  086C               	movf	_eusart1RxHead,w
  5845  062C  3EA0               	addlw	(low (_eusart1RxBuffer| 0))& (0+255)
  5846  062D  0086               	movwf	6
  5847  062E  0187               	clrf	7
  5848  062F  0870               	movf	??_EUSART1_Receive_ISR,w
  5849  0630  0081               	movwf	1
  5850  0631  3001               	movlw	1
  5851  0632  00F0               	movwf	??_EUSART1_Receive_ISR
  5852  0633  0870               	movf	??_EUSART1_Receive_ISR,w
  5853  0634  07EC               	addwf	_eusart1RxHead,f
  5854                           
  5855                           ;eusart1.c: 174: SERIAL_BUFF[SERIAL_BUFFcount] = eusart1RxBuffer[eusart1RxHead -1];
  5856  0635  086C               	movf	_eusart1RxHead,w
  5857  0636  3EFF               	addlw	255
  5858  0637  3EA0               	addlw	(low (_eusart1RxBuffer| 0))& (0+255)
  5859  0638  0086               	movwf	6
  5860  0639  0187               	clrf	7
  5861  063A  0801               	movf	1,w
  5862  063B  00F0               	movwf	??_EUSART1_Receive_ISR
  5863  063C  0141               	movlb	1	; select bank1
  5864  063D  0864               	movf	_SERIAL_BUFFcount^(0+128),w
  5865  063E  3EC8               	addlw	(low (_SERIAL_BUFF| 0))& (0+255)
  5866  063F  0086               	movwf	6
  5867  0640  0187               	clrf	7
  5868  0641  0870               	movf	??_EUSART1_Receive_ISR,w
  5869  0642  0081               	movwf	1
  5870                           
  5871                           ;eusart1.c: 175: SERIAL_BUFFcount++;
  5872  0643  3001               	movlw	1
  5873  0644  00F0               	movwf	??_EUSART1_Receive_ISR
  5874  0645  0870               	movf	??_EUSART1_Receive_ISR,w
  5875  0646  07E4               	addwf	_SERIAL_BUFFcount^(0+128),f
  5876                           
  5877                           ;eusart1.c: 177: if(sizeof(eusart1RxBuffer) <= eusart1RxHead)
  5878  0647  3020               	movlw	32
  5879  0648  0140               	movlb	0	; select bank0
  5880  0649  026C               	subwf	_eusart1RxHead,w
  5881  064A  1803               	btfsc	3,0
  5882                           
  5883                           ;eusart1.c: 178: {
  5884                           ;eusart1.c: 179: eusart1RxHead = 0;
  5885  064B  01EC               	clrf	_eusart1RxHead
  5886                           
  5887                           ;eusart1.c: 180: }
  5888                           ;eusart1.c: 181: eusart1RxCount++;
  5889  064C  3001               	movlw	1
  5890  064D  00F0               	movwf	??_EUSART1_Receive_ISR
  5891  064E  0870               	movf	??_EUSART1_Receive_ISR,w
  5892  064F  0141               	movlb	1	; select bank1
  5893  0650  07E8               	addwf	_eusart1RxCount^(0+128),f
  5894  0651  0008               	return
  5895  0652                     __end_of_EUSART1_Receive_ISR:	
  5896  007E                     btemp	set	126	;btemp
  5897  007E                     int$flags	set	126
  5898  007E                     wtemp0	set	126


Data Sizes:
    Strings     0
    Constant    0
    Data        3
    BSS         78
    Persistent  1
    Stack       0

Auto Spaces:
    Space          Size  Autos    Used
    COMMON           14     14      14
    BANK0            80     75      80
    BANK1            80      1      78
    BANK2            80      0       0
    BANK3            80      0       0
    BANK4            80      0       0
    BANK5            80      0       0
    BANK6            80      0       0
    BANK7            80      0       0
    BANK8            80      0       0
    BANK9            80      0       0
    BANK10           80      0       0
    BANK11           80      0       0
    BANK12           48      0       0

Pointer List with Targets:

    None.

Critical Paths under _main in COMMON

    None.

Critical Paths under _INTERRUPT_InterruptManager in COMMON

    _I2C1_StatusCallback->___awtoft
    _I2C1_StatusCallback->___ftadd
    ___fttol->___awtoft
    ___fttol->___ftadd
    ___ftmul->___awtoft
    ___ftmul->___ftadd
    ___ftdiv->___awtoft
    ___ftdiv->___ftadd
    ___ftadd->___ftpack
    ___awtoft->___ftpack

Critical Paths under _main in BANK0

    None.

Critical Paths under _INTERRUPT_InterruptManager in BANK0

    _INTERRUPT_InterruptManager->_I2C1_ISR
    _I2C1_ISR->_I2C1_StatusCallback
    _I2C1_StatusCallback->___fttol
    ___fttol->___ftmul
    ___ftmul->___ftdiv
    ___ftdiv->___ftadd

Critical Paths under _main in BANK1

    _SYSTEM_Initialize->_EUSART1_Initialize
    _SYSTEM_Initialize->_PIN_MANAGER_Initialize

Critical Paths under _INTERRUPT_InterruptManager in BANK1

    None.

Critical Paths under _main in BANK2

    None.

Critical Paths under _INTERRUPT_InterruptManager in BANK2

    None.

Critical Paths under _main in BANK3

    None.

Critical Paths under _INTERRUPT_InterruptManager in BANK3

    None.

Critical Paths under _main in BANK4

    None.

Critical Paths under _INTERRUPT_InterruptManager in BANK4

    None.

Critical Paths under _main in BANK5

    None.

Critical Paths under _INTERRUPT_InterruptManager in BANK5

    None.

Critical Paths under _main in BANK6

    None.

Critical Paths under _INTERRUPT_InterruptManager in BANK6

    None.

Critical Paths under _main in BANK7

    None.

Critical Paths under _INTERRUPT_InterruptManager in BANK7

    None.

Critical Paths under _main in BANK8

    None.

Critical Paths under _INTERRUPT_InterruptManager in BANK8

    None.

Critical Paths under _main in BANK9

    None.

Critical Paths under _INTERRUPT_InterruptManager in BANK9

    None.

Critical Paths under _main in BANK10

    None.

Critical Paths under _INTERRUPT_InterruptManager in BANK10

    None.

Critical Paths under _main in BANK11

    None.

Critical Paths under _INTERRUPT_InterruptManager in BANK11

    None.

Critical Paths under _main in BANK12

    None.

Critical Paths under _INTERRUPT_InterruptManager in BANK12

    None.

Call Graph Tables:

 ---------------------------------------------------------------------------------
 (Depth) Function   	        Calls       Base Space   Used Autos Params    Refs
 ---------------------------------------------------------------------------------
 (0) _main                                                 0     0      0      23
                  _SYSTEM_Initialize
 ---------------------------------------------------------------------------------
 (1) _SYSTEM_Initialize                                    0     0      0      23
                 _EUSART1_Initialize
                    _I2C1_Initialize
              _OSCILLATOR_Initialize
             _PIN_MANAGER_Initialize
 ---------------------------------------------------------------------------------
 (2) _PIN_MANAGER_Initialize                               1     1      0      23
                                              0 BANK1      1     1      0
 ---------------------------------------------------------------------------------
 (2) _OSCILLATOR_Initialize                                0     0      0       0
 ---------------------------------------------------------------------------------
 (2) _I2C1_Initialize                                      0     0      0       0
 ---------------------------------------------------------------------------------
 (2) _EUSART1_Initialize                                   1     1      0       0
                                              0 BANK1      1     1      0
 ---------------------------------------------------------------------------------
 Estimated maximum stack depth 2
 ---------------------------------------------------------------------------------
 (Depth) Function   	        Calls       Base Space   Used Autos Params    Refs
 ---------------------------------------------------------------------------------
 (3) _INTERRUPT_InterruptManager                           1     1      0   10162
                                             74 BANK0      1     1      0
                _EUSART1_Receive_ISR
               _EUSART1_Transmit_ISR
                           _I2C1_ISR
 ---------------------------------------------------------------------------------
 (4) _I2C1_ISR                                             2     2      0   10162
                                             72 BANK0      2     2      0
                _I2C1_StatusCallback
 ---------------------------------------------------------------------------------
 (5) _I2C1_StatusCallback                                 21    20      1   10050
                                             53 BANK0     19    18      1
                      _EUSART1_Write
                           ___awtoft
                            ___ftadd
                            ___ftdiv
                            ___ftmul
                            ___fttol
                          _putinrVAR
                             _torVAR
 ---------------------------------------------------------------------------------
 (6) _torVAR                                               9     6      3     190
                                              0 COMMON     9     6      3
 ---------------------------------------------------------------------------------
 (6) _putinrVAR                                            1     1      0       0
                                              0 COMMON     1     1      0
 ---------------------------------------------------------------------------------
 (6) ___fttol                                             14    10      4     305
                                             39 BANK0     14    10      4
                           ___awtoft (ARG)
                            ___ftadd (ARG)
                            ___ftdiv (ARG)
                            ___ftmul (ARG)
 ---------------------------------------------------------------------------------
 (6) ___ftmul                                             16    10      6    2245
                                             23 BANK0     16    10      6
                           ___awtoft (ARG)
                            ___ftadd (ARG)
                            ___ftdiv (ARG)
                           ___ftpack
 ---------------------------------------------------------------------------------
 (6) ___ftdiv                                             16    10      6    2199
                                              7 BANK0     16    10      6
                           ___awtoft (ARG)
                            ___ftadd (ARG)
                           ___ftpack
 ---------------------------------------------------------------------------------
 (6) ___ftadd                                             13     7      6    2733
                                              8 COMMON     6     0      6
                                              0 BANK0      7     7      0
                           ___ftpack
 ---------------------------------------------------------------------------------
 (6) ___awtoft                                             6     3      3    1851
                                              8 COMMON     6     3      3
                           ___ftpack
 ---------------------------------------------------------------------------------
 (7) ___ftpack                                             8     3      5    1707
                                              0 COMMON     8     3      5
 ---------------------------------------------------------------------------------
 (6) _EUSART1_Write                                        2     2      0      44
                                              0 COMMON     2     2      0
 ---------------------------------------------------------------------------------
 (4) _EUSART1_Transmit_ISR                                 1     1      0       0
                                              0 COMMON     1     1      0
 ---------------------------------------------------------------------------------
 (4) _EUSART1_Receive_ISR                                  1     1      0       0
                                              0 COMMON     1     1      0
 ---------------------------------------------------------------------------------
 Estimated maximum stack depth 7
 ---------------------------------------------------------------------------------

 Call Graph Graphs:

 _main (ROOT)
   _SYSTEM_Initialize
     _EUSART1_Initialize
     _I2C1_Initialize
     _OSCILLATOR_Initialize
     _PIN_MANAGER_Initialize

 _INTERRUPT_InterruptManager (ROOT)
   _EUSART1_Receive_ISR
   _EUSART1_Transmit_ISR
   _I2C1_ISR
     _I2C1_StatusCallback
       _EUSART1_Write
       ___awtoft
         ___ftpack
       ___ftadd
         ___ftpack
       ___ftdiv
         ___awtoft (ARG)
           ___ftpack
         ___ftadd (ARG)
           ___ftpack
         ___ftpack (ARG)
       ___ftmul
         ___awtoft (ARG)
           ___ftpack
         ___ftadd (ARG)
           ___ftpack
         ___ftdiv (ARG)
           ___awtoft (ARG)
             ___ftpack
           ___ftadd (ARG)
             ___ftpack
           ___ftpack (ARG)
         ___ftpack (ARG)
       ___fttol
         ___awtoft (ARG)
           ___ftpack
         ___ftadd (ARG)
           ___ftpack
         ___ftdiv (ARG)
           ___awtoft (ARG)
             ___ftpack
           ___ftadd (ARG)
             ___ftpack
           ___ftpack (ARG)
         ___ftmul (ARG)
           ___awtoft (ARG)
             ___ftpack
           ___ftadd (ARG)
             ___ftpack
           ___ftdiv (ARG)
             ___awtoft (ARG)
               ___ftpack
             ___ftadd (ARG)
               ___ftpack
             ___ftpack (ARG)
           ___ftpack (ARG)
       _putinrVAR
       _torVAR

 Address spaces:
Name               Size   Autos  Total    Cost      Usage
BIGRAM             3F0      0       0       0        0.0%
NULL                 0      0       0       0        0.0%
CODE                 0      0       0       0        0.0%
BITCOMMON            E      0       0       1        0.0%
BITSFR0              0      0       0       1        0.0%
SFR0                 0      0       0       1        0.0%
COMMON               E      E       E       2      100.0%
BITSFR1              0      0       0       2        0.0%
SFR1                 0      0       0       2        0.0%
BITSFR2              0      0       0       3        0.0%
SFR2                 0      0       0       3        0.0%
STACK                0      0       0       3        0.0%
BITSFR3              0      0       0       4        0.0%
SFR3                 0      0       0       4        0.0%
ABS                  0      0      AC       4        0.0%
BITBANK0            50      0       0       5        0.0%
BITSFR4              0      0       0       5        0.0%
SFR4                 0      0       0       5        0.0%
BANK0               50     4B      50       6      100.0%
BITSFR5              0      0       0       6        0.0%
SFR5                 0      0       0       6        0.0%
BITBANK1            50      0       0       7        0.0%
BITSFR6              0      0       0       7        0.0%
SFR6                 0      0       0       7        0.0%
BANK1               50      1      4E       8       97.5%
BITSFR7              0      0       0       8        0.0%
SFR7                 0      0       0       8        0.0%
BITBANK2            50      0       0       9        0.0%
BITSFR8              0      0       0       9        0.0%
SFR8                 0      0       0       9        0.0%
BANK2               50      0       0      10        0.0%
BITSFR9              0      0       0      10        0.0%
SFR9                 0      0       0      10        0.0%
BITBANK3            50      0       0      11        0.0%
BITSFR10             0      0       0      11        0.0%
SFR10                0      0       0      11        0.0%
BANK3               50      0       0      12        0.0%
BITSFR11             0      0       0      12        0.0%
SFR11                0      0       0      12        0.0%
BITBANK4            50      0       0      13        0.0%
BITSFR12             0      0       0      13        0.0%
SFR12                0      0       0      13        0.0%
BANK4               50      0       0      14        0.0%
BITSFR13             0      0       0      14        0.0%
SFR13                0      0       0      14        0.0%
BITBANK5            50      0       0      15        0.0%
BITSFR14             0      0       0      15        0.0%
SFR14                0      0       0      15        0.0%
BANK5               50      0       0      16        0.0%
BITSFR15             0      0       0      16        0.0%
SFR15                0      0       0      16        0.0%
BITBANK6            50      0       0      17        0.0%
BITSFR16             0      0       0      17        0.0%
SFR16                0      0       0      17        0.0%
BANK6               50      0       0      18        0.0%
BITSFR17             0      0       0      18        0.0%
SFR17                0      0       0      18        0.0%
BITBANK7            50      0       0      19        0.0%
BITSFR18             0      0       0      19        0.0%
SFR18                0      0       0      19        0.0%
BANK7               50      0       0      20        0.0%
BITSFR19             0      0       0      20        0.0%
SFR19                0      0       0      20        0.0%
BITBANK8            50      0       0      21        0.0%
BITSFR20             0      0       0      21        0.0%
SFR20                0      0       0      21        0.0%
BANK8               50      0       0      22        0.0%
BITSFR21             0      0       0      22        0.0%
SFR21                0      0       0      22        0.0%
BITBANK9            50      0       0      23        0.0%
BITSFR22             0      0       0      23        0.0%
SFR22                0      0       0      23        0.0%
BANK9               50      0       0      24        0.0%
BITSFR23             0      0       0      24        0.0%
SFR23                0      0       0      24        0.0%
BITBANK10           50      0       0      25        0.0%
BITSFR24             0      0       0      25        0.0%
SFR24                0      0       0      25        0.0%
BANK10              50      0       0      26        0.0%
BITSFR25             0      0       0      26        0.0%
SFR25                0      0       0      26        0.0%
BITBANK11           50      0       0      27        0.0%
BITSFR26             0      0       0      27        0.0%
SFR26                0      0       0      27        0.0%
BANK11              50      0       0      28        0.0%
BITSFR27             0      0       0      28        0.0%
SFR27                0      0       0      28        0.0%
BITBANK12           30      0       0      29        0.0%
BITSFR28             0      0       0      29        0.0%
SFR28                0      0       0      29        0.0%
BANK12              30      0       0      30        0.0%
BITSFR29             0      0       0      30        0.0%
SFR29                0      0       0      30        0.0%
BITSFR30             0      0       0      31        0.0%
SFR30                0      0       0      31        0.0%
DATA                 0      0      AC      31        0.0%
BITSFR31             0      0       0      32        0.0%
SFR31                0      0       0      32        0.0%
BITSFR32             0      0       0      33        0.0%
SFR32                0      0       0      33        0.0%
BITSFR33             0      0       0      34        0.0%
SFR33                0      0       0      34        0.0%
BITSFR34             0      0       0      35        0.0%
SFR34                0      0       0      35        0.0%
BITSFR35             0      0       0      36        0.0%
SFR35                0      0       0      36        0.0%
BITSFR36             0      0       0      37        0.0%
SFR36                0      0       0      37        0.0%
BITSFR37             0      0       0      38        0.0%
SFR37                0      0       0      38        0.0%
BITSFR38             0      0       0      39        0.0%
SFR38                0      0       0      39        0.0%
BITSFR39             0      0       0      40        0.0%
SFR39                0      0       0      40        0.0%
BITSFR40             0      0       0      41        0.0%
SFR40                0      0       0      41        0.0%
BITSFR41             0      0       0      42        0.0%
SFR41                0      0       0      42        0.0%
BITSFR42             0      0       0      43        0.0%
SFR42                0      0       0      43        0.0%
BITSFR43             0      0       0      44        0.0%
SFR43                0      0       0      44        0.0%
BITSFR44             0      0       0      45        0.0%
SFR44                0      0       0      45        0.0%
BITSFR45             0      0       0      46        0.0%
SFR45                0      0       0      46        0.0%
BITSFR46             0      0       0      47        0.0%
SFR46                0      0       0      47        0.0%
BITSFR47             0      0       0      48        0.0%
SFR47                0      0       0      48        0.0%
BITSFR48             0      0       0      49        0.0%
SFR48                0      0       0      49        0.0%
BITSFR49             0      0       0      50        0.0%
SFR49                0      0       0      50        0.0%
BITSFR50             0      0       0      51        0.0%
SFR50                0      0       0      51        0.0%
BITSFR51             0      0       0      52        0.0%
SFR51                0      0       0      52        0.0%
BITSFR52             0      0       0      53        0.0%
SFR52                0      0       0      53        0.0%
BITSFR53             0      0       0      54        0.0%
SFR53                0      0       0      54        0.0%
BITSFR54             0      0       0      55        0.0%
SFR54                0      0       0      55        0.0%
BITSFR55             0      0       0      56        0.0%
SFR55                0      0       0      56        0.0%
BITSFR56             0      0       0      57        0.0%
SFR56                0      0       0      57        0.0%
BITSFR57             0      0       0      58        0.0%
SFR57                0      0       0      58        0.0%
BITSFR58             0      0       0      59        0.0%
SFR58                0      0       0      59        0.0%
BITSFR59             0      0       0      60        0.0%
SFR59                0      0       0      60        0.0%
BITSFR60             0      0       0      61        0.0%
SFR60                0      0       0      61        0.0%
BITSFR61             0      0       0      62        0.0%
SFR61                0      0       0      62        0.0%
BITSFR62             0      0       0      63        0.0%
SFR62                0      0       0      63        0.0%
BITSFR63             0      0       0      64        0.0%
SFR63                0      0       0      64        0.0%


Microchip Technology PIC Macro Assembler V1.41 build -162212810 
Symbol Table                                                                                   Mon Jun 26 07:53:58 2017

           _eusart1TxBufferRemaining 00EC                          __CFG_CP$OFF 0000  
                      _LastSerialCMD 006F                         ___ftadd@exp1 0026  
                       ___ftadd@exp2 0025                          __CFG_LVP$ON 0000  
                       ___ftadd@sign 0024                                  l436 073E  
                                _GIE 005F                         __CFG_BORV$LO 0000  
                                wreg 0009                        __CFG_BBEN$OFF 0000  
                       __CFG_ZCD$OFF 0000                         ___ftdiv@cntr 0031  
                   __end_of_I2C1_ISR 0623                         ___ftdiv@sign 0036  
                               _LATA 0018                                 _LATB 0019  
                               _LATC 001A                                 u1660 05E6  
                               _WPUA 1F39                                 _WPUB 1F44  
                               _WPUC 1F4F                                 _WPUE 1F65  
                      _EUSART1_Write 0652                        __CFG_FCMEN$ON 0000  
                               _rVAR 00E0                                 _wVAR 00DC  
                               _main 0737                         ___ftpack@arg 0070  
                       ___ftpack@exp 0073                                 fsr0h 0005  
                               fsr1h 0007                                 indf0 0000  
                               fsr0l 0004                                 indf1 0001  
                               fsr1l 0006                                 btemp 007E  
                      __CFG_BOREN$ON 0000                                 start 002A  
                      __CFG_CSWEN$ON 0000                        __CFG_MCLRE$ON 0000  
                       ___ftmul@cntr 0045                         ___ftmul@sign 0046  
                _I2C1_StatusCallback 0049                         ___fttol@exp1 0054  
                       ___fttol@lval 0050       __size_of_OSCILLATOR_Initialize 000A  
      __end_of_OSCILLATOR_Initialize 0737                                ?_main 0070  
                    __end_of___ftadd 035A                        __CFG_WDTE$OFF 0000  
                    __end_of___ftdiv 04B7                      __end_of___ftmul 040E  
                    __end_of___fttol 053E                                i1l135 06D4  
                              i1l129 065E                                i1l250 0025  
                              i1l332 0609                                i1l244 0013  
                              i1l246 001D                                i1l611 0583  
                              i1l612 058B                                i1l604 0570  
                              i1l375 0264                                i1l635 0304  
                              i1l695 0524                                _OSCEN 0891  
                              _TRISA 0012                                _TRISB 0013  
                              _TRISC 0014                                u97_25 0552  
                              u99_25 056B                 _EUSART1_Transmit_ISR 06B8  
                  ??_I2C1_Initialize 00ED                 ?_I2C1_StatusCallback 0055  
                      __CFG_WRTB$OFF 0000                        __CFG_WRTC$OFF 0000  
                              _wMTQv 00CE                        ___awtoft@sign 007D  
                      ___ftpack@sign 0074                       ?_EUSART1_Write 0070  
                              status 0003                                wtemp0 007E  
                    __initialization 002C           __end_of_EUSART1_Initialize 06F4  
                       __end_of_main 073F                       __CFG_SAFEN$OFF 0000  
        ?_INTERRUPT_InterruptManager 0070                               ??_main 00EE  
                      ___fttol@sign1 004F                ?_EUSART1_Transmit_ISR 0070  
              ??_I2C1_StatusCallback 0056                     __end_of___awtoft 06B8  
                             _ANSELA 1F38                               _ANSELB 1F43  
                             _ANSELC 1F4E                     __end_of___ftpack 05A2  
                 __CFG_RSTOSC$HFINT1 0000                               _RC1REG 0119  
                             _RC1STA 011D                               _RC3PPS 1F23  
                             u101_25 0578                               _RC4PPS 1F24  
                             i1l1411 054D                               i1l1421 0575  
                             i1l1413 0557                               i1l1423 057D  
                             i1l1415 055C                               i1l1407 0546  
                             i1l1521 02E3                               _ODCONA 1F3A  
                             _ODCONB 1F45                               i1l1451 0673  
                             i1l1515 02D0                               _ODCONC 1F50  
                             _RC6PPS 1F26                               i1l1437 0653  
                             i1l1533 0316                               i1l1517 02DA  
                             i1l1509 02BD                               i1l1621 03CA  
                             i1l1605 0387                               i1l1527 02F6  
                             i1l1519 02DF                               i1l1537 0328  
                             i1l1529 0300                               i1l1633 03E6  
                             i1l1617 03C2                               i1l1801 0141  
                             i1l1547 0343                               i1l1491 0294  
                             i1l1563 043B                               i1l1811 015E  
                             u105_25 0592                               i1l1477 06A2  
                             i1l1557 0425                               i1l1629 03DE  
                             i1l1821 017B                               i1l1805 014E  
                             i1l1487 028D                               i1l1831 0198  
                             i1l1815 016B                               i1l1497 02A3  
                             i1l1585 0495                               i1l1577 047C  
                             i1l1681 0535                               i1l1649 04D0  
                             i1l1841 01B5                               i1l1825 0188  
                             i1l1907 0628                               i1l1675 051B  
                             i1l1667 0500                               i1l1851 01D2  
                             i1l1835 01A5                               i1l1763 004C  
                             i1l1931 0602                               u122_25 02BE  
                             i1l1677 0527                               i1l1669 050E  
                             i1l1861 0218                               i1l1845 01C2  
                             i1l1765 0051                               i1l1599 0371  
                             i1l1791 0128                               i1l1775 008B  
                             i1l1935 0612                               i1l1881 023B  
                             i1l1873 022D                               i1l1865 021F  
                             i1l1769 0060                               i1l1857 01DF  
                             i1l1859 0213                               i1l1795 0131  
                             u131_25 02F7                               i1l1877 0234  
                             i1l1869 0226                               i1l1885 0240  
                             i1l1887 0256                       __CFG_WDTCCS$SC 0000  
                             u140_25 047D                               u125_25 02D1  
                             u141_25 048C                               u142_25 0496  
                             u150_25 03D1                               u128_25 02E4  
                             u160_25 0501                               u153_25 03E7  
                             u138_25 044D                               u154_25 03ED  
                             u146_25 0393                               u170_25 009B  
                             u139_25 045D                               u147_25 03A3  
                             u163_25 051C                               u149_25 03CB  
                             u157_25 04D7                               u168_25 0070  
                             u169_25 0080                               _OSCFRQ 0893  
                             _TX1REG 011A                               _TX1STA 011E  
           _I2C1_StatusCallback$1148 005D                           _SerialLast 00D8  
                     __CFG_PWRTE$OFF 0000                               _rVAR_u 00E7  
                          ??___ftadd 0020                               _wVAR_u 00E6  
                     __CFG_STVREN$ON 0000                            ??___ftdiv 002D  
                          ??___ftmul 003D                            ??___fttol 004B  
                          ?_I2C1_ISR 0070                               _torVAR 06F4  
              ___ftmul@f3_as_product 0042                      ??_EUSART1_Write 0070  
                    _eusart1RxBuffer 00A0                      _eusart1TxBuffer 00C0  
                  _SYSTEM_Initialize 0721              __end_of__initialization 0045  
                         ___ftadd@f1 0078                           ___ftadd@f2 007B  
                 ?_SYSTEM_Initialize 0070                           ___ftdiv@f1 002A  
                         ___ftdiv@f2 0027                           ___ftdiv@f3 0032  
                         ___awtoft@c 0078                           ___ftmul@f1 0037  
                         ___ftmul@f2 003A                           ___fttol@f1 0047  
                     __pcstackCOMMON 0070                         __pidataBANK0 0747  
                       __pidataBANK1 0745                  ??_SYSTEM_Initialize 00EE  
                         ??_I2C1_ISR 0068               ??_EUSART1_Transmit_ISR 0070  
        __end_of_EUSART1_Receive_ISR 0652            __end_of_SYSTEM_Initialize 072D  
                      _eusart1RxHead 006C                        _eusart1TxHead 006E  
                      _eusart1RxTail 00E9                           __pbssBANK0 006B  
                         __pbssBANK1 00A0                        _eusart1TxTail 006D  
                     _SSP1DATPPSbits 1EC6                           __pmaintext 0737  
         I2C1_StatusCallback@dataI2C 0055                      __CFG_PPS1WAY$ON 0000  
                         __pintentry 0004                      _I2C1_Initialize 0711  
                          ?___awtoft 0078                            ?___ftpack 0070  
                   torVAR@floatUnion 0074                              ?_torVAR 0070  
                     _SSP1CLKPPSbits 1EC5                              _SP1BRGH 011C  
                            _SP1BRGL 011B                              _OSCCON1 088D  
                            _OSCCON3 088F                              _OSCSTAT 0890  
                            _OSCTUNE 0892                              _SSP1ADD 018D  
                            _PPSLOCK 1E8F                              _SSP1BUF 018C  
                            _SSP1MSK 018E                   __size_of_putinrVAR 0022  
                         _floatUnion 00D4               I2C1_StatusCallback@val 0066  
                            ___ftadd 0265                              ___ftdiv 040E  
                            ___ftmul 035A                              ___fttol 04B7  
                         ??___awtoft 007B                           ??___ftpack 0075  
                            __ptext1 0721                              __ptext2 05A2  
                            __ptext3 072D                              __ptext4 0711  
                            __ptext5 06D7                              __ptext7 05E8  
                            __ptext8 0049                              __ptext9 06F4  
                    __size_of_torVAR 001D                      __CFG_WRTAPP$OFF 0000  
              _OSCILLATOR_Initialize 072D                   _EUSART1_Initialize 06D7  
           ??_PIN_MANAGER_Initialize 00ED                      __CFG_WRTSAF$OFF 0000  
         __size_of_SYSTEM_Initialize 000C                              clrloop0 0740  
               end_of_initialization 0045                  ?_EUSART1_Initialize 0070  
                        torVAR@xount 0078              __end_of_I2C1_Initialize 0721  
               ??_EUSART1_Initialize 00ED                    __end_of_putinrVAR 0698  
              __CFG_WDTCPS$WDTCPS_31 0000          __end_of_I2C1_StatusCallback 0265  
                  __size_of_I2C1_ISR 003B                  EUSART1_Write@txData 0071  
                   __CFG_FEXTOSC$OFF 0000                        _SerialCMDDone 00EB  
                        ___ftdiv@exp 0035                     _SERIAL_BUFFcount 00E4  
                        ___ftmul@exp 0041             I2C1_StatusCallback@val16 0064  
             ?_OSCILLATOR_Initialize 0070                       __end_of_torVAR 0711  
                start_initialization 002C      __size_of_PIN_MANAGER_Initialize 0046  
              __end_of_EUSART1_Write 0676                     ?_I2C1_Initialize 0070  
                   __CFG_LPBOREN$OFF 0000                     I2C1_ISR@i2c_data 0069  
                        __pdataBANK0 006F                          __pdataBANK1 00EA  
                           ??_torVAR 0073                       _eusart1RxCount 00E8  
                  __size_of___awtoft 0020                    __size_of___ftpack 0064  
                          ___latbits 0002        __size_of_EUSART1_Transmit_ISR 001F  
                      __pcstackBANK0 0020                        __pcstackBANK1 00ED  
   I2C1_StatusCallback@i2c_bus_state 0060         __size_of_EUSART1_Receive_ISR 002F  
                          __pnvBANK1 00EC               _PIN_MANAGER_Initialize 05A2  
                           ?___ftadd 0078                             ?___ftdiv 0027  
                           ?___ftmul 0037                             ?___fttol 0047  
                           _I2C1_ISR 05E8         ??_INTERRUPT_InterruptManager 006A  
                           _BAUD1CON 011F                I2C1_StatusCallback@R1 005A  
              I2C1_StatusCallback@R2 0061                             _LATCbits 001A  
                         torVAR@data 0070                            clear_ram0 073F  
                           _PIE3bits 0719  __size_of_INTERRUPT_InterruptManager 0026  
                           _PIR3bits 070F                    __CFG_BBSIZE$BB512 0000  
                           _SSP1CON1 0190                             _SSP1CON2 0191  
                           _SSP1CON3 0192                             _SSP1STAT 018F  
                _I2C1_slaveWriteData 00EA                         _RX1DTPPSbits 1ECB  
                          _putinrVAR 0676                          _OBC_LastCMD 006B  
            ??_OSCILLATOR_Initialize 00ED                     __size_of___ftadd 00F5  
                   __size_of___ftdiv 00A9                     __size_of___ftmul 00B4  
                   __size_of___fttol 0087          __size_of_EUSART1_Initialize 001D  
                           ___awtoft 0698                             _WriteCMD 00E5  
                           ___ftpack 053E                           ?_putinrVAR 0070  
       __size_of_I2C1_StatusCallback 021C                             __ptext10 0676  
                           __ptext11 04B7                             __ptext12 035A  
                           __ptext13 040E                             __ptext14 0265  
                           __ptext15 0698                             __ptext16 053E  
                           __ptext17 0652                             __ptext18 06B8  
                           __ptext19 0623                         _SSP1CON1bits 0190  
                       _SSP1CON2bits 0191                        __size_of_main 0008  
               __CFG_WDTCWS$WDTCWS_7 0000                          _SERIAL_BUFF 00C8  
                         _RC1STAbits 011D                             int$flags 007E  
 __end_of_INTERRUPT_InterruptManager 002A           _INTERRUPT_InterruptManager 0004  
                       _SSP1STATbits 018F                  _EUSART1_Receive_ISR 0623  
        PIN_MANAGER_Initialize@state 00ED                           _INTCONbits 000B  
                           intlevel1 0000                 ?_EUSART1_Receive_ISR 0070  
            ?_PIN_MANAGER_Initialize 0070                    __CFG_CLKOUTEN$OFF 0000  
                        _PPSLOCKbits 1E8F         __end_of_EUSART1_Transmit_ISR 06D7  
           __size_of_I2C1_Initialize 0010               __size_of_EUSART1_Write 0024  
                        ??_putinrVAR 0070                ??_EUSART1_Receive_ISR 0070  
     __end_of_PIN_MANAGER_Initialize 05E8  
